	.text
	.def	@feat.00;
	.scl	3;
	.type	0;
	.endef
	.globl	@feat.00
.set @feat.00, 0
	.file	"main.225d1bb29b40c5e1-cgu.0"
	.def	_ZN110_$LT$core..iter..adapters..enumerate..Enumerate$LT$I$GT$$u20$as$u20$core..iter..traits..iterator..Iterator$GT$4next17hcd31c0442d70263eE;
	.scl	3;
	.type	32;
	.endef
	.section	.text,"xr",one_only,_ZN110_$LT$core..iter..adapters..enumerate..Enumerate$LT$I$GT$$u20$as$u20$core..iter..traits..iterator..Iterator$GT$4next17hcd31c0442d70263eE
	.p2align	4, 0x90
_ZN110_$LT$core..iter..adapters..enumerate..Enumerate$LT$I$GT$$u20$as$u20$core..iter..traits..iterator..Iterator$GT$4next17hcd31c0442d70263eE:
.Lfunc_begin0:
.seh_proc _ZN110_$LT$core..iter..adapters..enumerate..Enumerate$LT$I$GT$$u20$as$u20$core..iter..traits..iterator..Iterator$GT$4next17hcd31c0442d70263eE
	.seh_handler __CxxFrameHandler3, @unwind, @except
	pushq	%rbp
	.seh_pushreg %rbp
	subq	$112, %rsp
	.seh_stackalloc 112
	leaq	112(%rsp), %rbp
	.seh_setframe %rbp, 112
	.seh_endprologue
	movq	$-2, -8(%rbp)
	movq	%rcx, -48(%rbp)
	callq	_ZN91_$LT$core..slice..iter..Iter$LT$T$GT$$u20$as$u20$core..iter..traits..iterator..Iterator$GT$4next17h469e898cf877d181E
	movq	%rax, -16(%rbp)
	movq	-16(%rbp), %rax
	cmpq	$0, %rax
	sete	%al
	testb	$1, %al
	jne	.LBB0_1
	jmp	.LBB0_2
.LBB0_1:
	movq	$0, -32(%rbp)
	jmp	.LBB0_3
.LBB0_2:
	movq	-48(%rbp), %rax
	movq	-16(%rbp), %rcx
	movq	%rcx, -24(%rbp)
	movq	-24(%rbp), %rcx
	movq	%rcx, -72(%rbp)
	movq	16(%rax), %rcx
	movq	%rcx, -64(%rbp)
	movq	16(%rax), %rax
	addq	$1, %rax
	movq	%rax, -56(%rbp)
	setb	%al
	jb	.LBB0_5
	jmp	.LBB0_4
.LBB0_3:
	movq	-40(%rbp), %rax
	movq	-32(%rbp), %rdx
	addq	$112, %rsp
	popq	%rbp
	retq
.LBB0_4:
	movq	-72(%rbp), %rax
	movq	-64(%rbp), %rcx
	movq	-48(%rbp), %rdx
	movq	-56(%rbp), %r8
	movq	%r8, 16(%rdx)
	movq	%rcx, -40(%rbp)
	movq	%rax, -32(%rbp)
	jmp	.LBB0_3
.LBB0_5:
.Ltmp0:
	leaq	__unnamed_1(%rip), %rcx
	callq	_ZN4core9panicking11panic_const24panic_const_add_overflow17he356f8cd7e4debd3E
.Ltmp1:
	jmp	.LBB0_7
.LBB0_7:
	ud2
	.seh_handlerdata
	.long	($cppxdata$_ZN110_$LT$core..iter..adapters..enumerate..Enumerate$LT$I$GT$$u20$as$u20$core..iter..traits..iterator..Iterator$GT$4next17hcd31c0442d70263eE)@IMGREL
	.section	.text,"xr",one_only,_ZN110_$LT$core..iter..adapters..enumerate..Enumerate$LT$I$GT$$u20$as$u20$core..iter..traits..iterator..Iterator$GT$4next17hcd31c0442d70263eE
	.seh_endproc
	.def	"?dtor$6@?0?_ZN110_$LT$core..iter..adapters..enumerate..Enumerate$LT$I$GT$$u20$as$u20$core..iter..traits..iterator..Iterator$GT$4next17hcd31c0442d70263eE@4HA";
	.scl	3;
	.type	32;
	.endef
	.p2align	4, 0x90
"?dtor$6@?0?_ZN110_$LT$core..iter..adapters..enumerate..Enumerate$LT$I$GT$$u20$as$u20$core..iter..traits..iterator..Iterator$GT$4next17hcd31c0442d70263eE@4HA":
.seh_proc "?dtor$6@?0?_ZN110_$LT$core..iter..adapters..enumerate..Enumerate$LT$I$GT$$u20$as$u20$core..iter..traits..iterator..Iterator$GT$4next17hcd31c0442d70263eE@4HA"
.LBB0_6:
	movq	%rdx, 16(%rsp)
	pushq	%rbp
	.seh_pushreg %rbp
	subq	$32, %rsp
	.seh_stackalloc 32
	leaq	112(%rdx), %rbp
	.seh_endprologue
	addq	$32, %rsp
	popq	%rbp
	retq
.Lfunc_end0:
	.seh_handlerdata
	.section	.text,"xr",one_only,_ZN110_$LT$core..iter..adapters..enumerate..Enumerate$LT$I$GT$$u20$as$u20$core..iter..traits..iterator..Iterator$GT$4next17hcd31c0442d70263eE
	.seh_endproc
	.section	.xdata,"dr",associative,_ZN110_$LT$core..iter..adapters..enumerate..Enumerate$LT$I$GT$$u20$as$u20$core..iter..traits..iterator..Iterator$GT$4next17hcd31c0442d70263eE
	.p2align	2, 0x0
$cppxdata$_ZN110_$LT$core..iter..adapters..enumerate..Enumerate$LT$I$GT$$u20$as$u20$core..iter..traits..iterator..Iterator$GT$4next17hcd31c0442d70263eE:
	.long	429065506
	.long	1
	.long	($stateUnwindMap$_ZN110_$LT$core..iter..adapters..enumerate..Enumerate$LT$I$GT$$u20$as$u20$core..iter..traits..iterator..Iterator$GT$4next17hcd31c0442d70263eE)@IMGREL
	.long	0
	.long	0
	.long	3
	.long	($ip2state$_ZN110_$LT$core..iter..adapters..enumerate..Enumerate$LT$I$GT$$u20$as$u20$core..iter..traits..iterator..Iterator$GT$4next17hcd31c0442d70263eE)@IMGREL
	.long	104
	.long	0
	.long	1
$stateUnwindMap$_ZN110_$LT$core..iter..adapters..enumerate..Enumerate$LT$I$GT$$u20$as$u20$core..iter..traits..iterator..Iterator$GT$4next17hcd31c0442d70263eE:
	.long	-1
	.long	"?dtor$6@?0?_ZN110_$LT$core..iter..adapters..enumerate..Enumerate$LT$I$GT$$u20$as$u20$core..iter..traits..iterator..Iterator$GT$4next17hcd31c0442d70263eE@4HA"@IMGREL
$ip2state$_ZN110_$LT$core..iter..adapters..enumerate..Enumerate$LT$I$GT$$u20$as$u20$core..iter..traits..iterator..Iterator$GT$4next17hcd31c0442d70263eE:
	.long	.Lfunc_begin0@IMGREL
	.long	-1
	.long	.Ltmp0@IMGREL+1
	.long	0
	.long	.Ltmp1@IMGREL+1
	.long	-1
	.section	.text,"xr",one_only,_ZN110_$LT$core..iter..adapters..enumerate..Enumerate$LT$I$GT$$u20$as$u20$core..iter..traits..iterator..Iterator$GT$4next17hcd31c0442d70263eE

	.def	_ZN3std2fs14read_to_string17h9bb73c25a39c9748E;
	.scl	3;
	.type	32;
	.endef
	.section	.text,"xr",one_only,_ZN3std2fs14read_to_string17h9bb73c25a39c9748E
	.p2align	4, 0x90
_ZN3std2fs14read_to_string17h9bb73c25a39c9748E:
.Lfunc_begin1:
.seh_proc _ZN3std2fs14read_to_string17h9bb73c25a39c9748E
	.seh_handler __CxxFrameHandler3, @unwind, @except
	pushq	%rbp
	.seh_pushreg %rbp
	subq	$96, %rsp
	.seh_stackalloc 96
	leaq	96(%rsp), %rbp
	.seh_setframe %rbp, 96
	.seh_endprologue
	movq	$-2, -8(%rbp)
	movq	%rcx, -56(%rbp)
	movq	%rcx, -48(%rbp)
	movq	%rdx, -24(%rbp)
	movq	%r8, -16(%rbp)
.Ltmp2:
	leaq	-24(%rbp), %rcx
	callq	_ZN55_$LT$$RF$T$u20$as$u20$core..convert..AsRef$LT$U$GT$$GT$6as_ref17h8fcb660b7beead96E
.Ltmp3:
	movq	%rdx, -40(%rbp)
	movq	%rax, -32(%rbp)
	jmp	.LBB1_2
.LBB1_2:
.Ltmp4:
	movq	-40(%rbp), %r8
	movq	-32(%rbp), %rdx
	movq	-56(%rbp), %rcx
	callq	_ZN3std2fs14read_to_string5inner17hccd9d5d6e098d52fE
.Ltmp5:
	jmp	.LBB1_3
.LBB1_3:
	movq	-48(%rbp), %rax
	addq	$96, %rsp
	popq	%rbp
	retq
	.seh_handlerdata
	.long	($cppxdata$_ZN3std2fs14read_to_string17h9bb73c25a39c9748E)@IMGREL
	.section	.text,"xr",one_only,_ZN3std2fs14read_to_string17h9bb73c25a39c9748E
	.seh_endproc
	.def	"?dtor$1@?0?_ZN3std2fs14read_to_string17h9bb73c25a39c9748E@4HA";
	.scl	3;
	.type	32;
	.endef
	.p2align	4, 0x90
"?dtor$1@?0?_ZN3std2fs14read_to_string17h9bb73c25a39c9748E@4HA":
.seh_proc "?dtor$1@?0?_ZN3std2fs14read_to_string17h9bb73c25a39c9748E@4HA"
.LBB1_1:
	movq	%rdx, 16(%rsp)
	pushq	%rbp
	.seh_pushreg %rbp
	subq	$32, %rsp
	.seh_stackalloc 32
	leaq	96(%rdx), %rbp
	.seh_endprologue
	addq	$32, %rsp
	popq	%rbp
	retq
.Lfunc_end1:
	.seh_handlerdata
	.section	.text,"xr",one_only,_ZN3std2fs14read_to_string17h9bb73c25a39c9748E
	.seh_endproc
	.section	.xdata,"dr",associative,_ZN3std2fs14read_to_string17h9bb73c25a39c9748E
	.p2align	2, 0x0
$cppxdata$_ZN3std2fs14read_to_string17h9bb73c25a39c9748E:
	.long	429065506
	.long	1
	.long	($stateUnwindMap$_ZN3std2fs14read_to_string17h9bb73c25a39c9748E)@IMGREL
	.long	0
	.long	0
	.long	3
	.long	($ip2state$_ZN3std2fs14read_to_string17h9bb73c25a39c9748E)@IMGREL
	.long	88
	.long	0
	.long	1
$stateUnwindMap$_ZN3std2fs14read_to_string17h9bb73c25a39c9748E:
	.long	-1
	.long	"?dtor$1@?0?_ZN3std2fs14read_to_string17h9bb73c25a39c9748E@4HA"@IMGREL
$ip2state$_ZN3std2fs14read_to_string17h9bb73c25a39c9748E:
	.long	.Lfunc_begin1@IMGREL
	.long	-1
	.long	.Ltmp2@IMGREL+1
	.long	0
	.long	.Ltmp5@IMGREL+1
	.long	-1
	.section	.text,"xr",one_only,_ZN3std2fs14read_to_string17h9bb73c25a39c9748E

	.def	_ZN3std2io5error14repr_bitpacked11decode_repr17h039d921aa33d1a92E;
	.scl	3;
	.type	32;
	.endef
	.section	.text,"xr",one_only,_ZN3std2io5error14repr_bitpacked11decode_repr17h039d921aa33d1a92E
	.p2align	4, 0x90
_ZN3std2io5error14repr_bitpacked11decode_repr17h039d921aa33d1a92E:
.Lfunc_begin2:
.seh_proc _ZN3std2io5error14repr_bitpacked11decode_repr17h039d921aa33d1a92E
	.seh_handler __CxxFrameHandler3, @unwind, @except
	pushq	%rbp
	.seh_pushreg %rbp
	subq	$112, %rsp
	.seh_stackalloc 112
	leaq	112(%rsp), %rbp
	.seh_setframe %rbp, 112
	.seh_endprologue
	movq	$-2, -8(%rbp)
	movq	%rdx, -64(%rbp)
	movq	%rcx, -56(%rbp)
	movq	%rcx, -48(%rbp)
	movb	$1, -17(%rbp)
	movq	%rdx, -32(%rbp)
	movq	-32(%rbp), %rax
	andl	$3, %eax
	movq	%rax, -40(%rbp)
	subq	$3, %rax
	ja	.LBB2_1
	movq	-40(%rbp), %rax
	leaq	.LJTI2_0(%rip), %rcx
	movslq	(%rcx,%rax,4), %rax
	addq	%rcx, %rax
	jmpq	*%rax
.LBB2_1:
.Ltmp10:
	leaq	__unnamed_2(%rip), %rcx
	leaq	__unnamed_3(%rip), %r8
	movl	$40, %edx
	callq	_ZN4core9panicking5panic17h60e16d349b7eb508E
.Ltmp11:
	jmp	.LBB2_13
.LBB2_2:
	movq	-56(%rbp), %rax
	movq	-32(%rbp), %rcx
	sarq	$32, %rcx
	movl	%ecx, 4(%rax)
	movb	$0, (%rax)
	jmp	.LBB2_6
.LBB2_3:
	movl	-28(%rbp), %ecx
.Ltmp8:
	callq	_ZN3std2io5error14repr_bitpacked14kind_from_prim17hc4d277505243c18bE
.Ltmp9:
	movb	%al, -65(%rbp)
	jmp	.LBB2_8
.LBB2_4:
	movq	-56(%rbp), %rax
	movq	-64(%rbp), %rcx
	movq	%rcx, 8(%rax)
	movb	$2, (%rax)
	jmp	.LBB2_6
.LBB2_5:
	movq	-64(%rbp), %rax
	decq	%rax
	movq	%rax, -16(%rbp)
	movq	-16(%rbp), %rcx
	movb	$0, -17(%rbp)
.Ltmp6:
	callq	_ZN78_$LT$std..io..error..repr_bitpacked..Repr$u20$as$u20$core..ops..drop..Drop$GT$4drop28_$u7b$$u7b$closure$u7d$$u7d$17hadc36682f66dfcf1E
.Ltmp7:
	movq	%rax, -80(%rbp)
	jmp	.LBB2_12
.LBB2_6:
	jmp	.LBB2_11
.LBB2_8:
	movb	-65(%rbp), %al
	movb	%al, -18(%rbp)
	cmpb	$41, -18(%rbp)
	sete	%al
	testb	$1, %al
	jne	.LBB2_9
	jmp	.LBB2_10
.LBB2_9:
	callq	_ZN4core4hint21unreachable_unchecked18precondition_check17hf8788716f3e14b08E
	ud2
.LBB2_10:
	movq	-56(%rbp), %rax
	movb	-18(%rbp), %cl
	movb	%cl, 1(%rax)
	movb	$1, (%rax)
	jmp	.LBB2_6
.LBB2_11:
	movq	-48(%rbp), %rax
	addq	$112, %rsp
	popq	%rbp
	retq
.LBB2_12:
	movq	-56(%rbp), %rax
	movq	-80(%rbp), %rcx
	movq	%rcx, 8(%rax)
	movb	$3, (%rax)
	jmp	.LBB2_11
.LBB2_13:
	ud2
	.seh_handlerdata
	.long	($cppxdata$_ZN3std2io5error14repr_bitpacked11decode_repr17h039d921aa33d1a92E)@IMGREL
	.section	.text,"xr",one_only,_ZN3std2io5error14repr_bitpacked11decode_repr17h039d921aa33d1a92E
	.seh_endproc
	.def	"?dtor$7@?0?_ZN3std2io5error14repr_bitpacked11decode_repr17h039d921aa33d1a92E@4HA";
	.scl	3;
	.type	32;
	.endef
	.p2align	4, 0x90
"?dtor$7@?0?_ZN3std2io5error14repr_bitpacked11decode_repr17h039d921aa33d1a92E@4HA":
.seh_proc "?dtor$7@?0?_ZN3std2io5error14repr_bitpacked11decode_repr17h039d921aa33d1a92E@4HA"
.LBB2_7:
	movq	%rdx, 16(%rsp)
	pushq	%rbp
	.seh_pushreg %rbp
	subq	$32, %rsp
	.seh_stackalloc 32
	leaq	112(%rdx), %rbp
	.seh_endprologue
	testb	$1, -17(%rbp)
	jne	.LBB2_15
	jmp	.LBB2_14
.LBB2_14:
	addq	$32, %rsp
	popq	%rbp
	retq
.LBB2_15:
	jmp	.LBB2_14
.Lfunc_end2:
	.section	.rdata,"dr",associative,_ZN3std2io5error14repr_bitpacked11decode_repr17h039d921aa33d1a92E
	.p2align	2, 0x0
.LJTI2_0:
	.long	.LBB2_4-.LJTI2_0
	.long	.LBB2_5-.LJTI2_0
	.long	.LBB2_2-.LJTI2_0
	.long	.LBB2_3-.LJTI2_0
	.seh_handlerdata
	.section	.text,"xr",one_only,_ZN3std2io5error14repr_bitpacked11decode_repr17h039d921aa33d1a92E
	.seh_endproc
	.section	.xdata,"dr",associative,_ZN3std2io5error14repr_bitpacked11decode_repr17h039d921aa33d1a92E
	.p2align	2, 0x0
$cppxdata$_ZN3std2io5error14repr_bitpacked11decode_repr17h039d921aa33d1a92E:
	.long	429065506
	.long	1
	.long	($stateUnwindMap$_ZN3std2io5error14repr_bitpacked11decode_repr17h039d921aa33d1a92E)@IMGREL
	.long	0
	.long	0
	.long	3
	.long	($ip2state$_ZN3std2io5error14repr_bitpacked11decode_repr17h039d921aa33d1a92E)@IMGREL
	.long	104
	.long	0
	.long	1
$stateUnwindMap$_ZN3std2io5error14repr_bitpacked11decode_repr17h039d921aa33d1a92E:
	.long	-1
	.long	"?dtor$7@?0?_ZN3std2io5error14repr_bitpacked11decode_repr17h039d921aa33d1a92E@4HA"@IMGREL
$ip2state$_ZN3std2io5error14repr_bitpacked11decode_repr17h039d921aa33d1a92E:
	.long	.Lfunc_begin2@IMGREL
	.long	-1
	.long	.Ltmp10@IMGREL+1
	.long	0
	.long	.Ltmp7@IMGREL+1
	.long	-1
	.section	.text,"xr",one_only,_ZN3std2io5error14repr_bitpacked11decode_repr17h039d921aa33d1a92E

	.def	_ZN3std2io5error14repr_bitpacked14kind_from_prim17hc4d277505243c18bE;
	.scl	3;
	.type	32;
	.endef
	.section	.text,"xr",one_only,_ZN3std2io5error14repr_bitpacked14kind_from_prim17hc4d277505243c18bE
	.p2align	4, 0x90
_ZN3std2io5error14repr_bitpacked14kind_from_prim17hc4d277505243c18bE:
.seh_proc _ZN3std2io5error14repr_bitpacked14kind_from_prim17hc4d277505243c18bE
	pushq	%rax
	.seh_stackalloc 8
	.seh_endprologue
	movl	%ecx, (%rsp)
	cmpl	$0, (%rsp)
	jne	.LBB3_2
	movb	$0, 7(%rsp)
	jmp	.LBB3_3
.LBB3_2:
	cmpl	$1, (%rsp)
	je	.LBB3_4
	jmp	.LBB3_5
.LBB3_3:
	movb	7(%rsp), %al
	popq	%rcx
	retq
.LBB3_4:
	movb	$1, 7(%rsp)
	jmp	.LBB3_3
.LBB3_5:
	cmpl	$2, (%rsp)
	jne	.LBB3_7
	movb	$2, 7(%rsp)
	jmp	.LBB3_3
.LBB3_7:
	cmpl	$3, (%rsp)
	jne	.LBB3_9
	movb	$3, 7(%rsp)
	jmp	.LBB3_3
.LBB3_9:
	cmpl	$4, (%rsp)
	jne	.LBB3_11
	movb	$4, 7(%rsp)
	jmp	.LBB3_3
.LBB3_11:
	cmpl	$5, (%rsp)
	jne	.LBB3_13
	movb	$5, 7(%rsp)
	jmp	.LBB3_3
.LBB3_13:
	cmpl	$6, (%rsp)
	jne	.LBB3_15
	movb	$6, 7(%rsp)
	jmp	.LBB3_3
.LBB3_15:
	cmpl	$7, (%rsp)
	jne	.LBB3_17
	movb	$7, 7(%rsp)
	jmp	.LBB3_3
.LBB3_17:
	cmpl	$8, (%rsp)
	jne	.LBB3_19
	movb	$8, 7(%rsp)
	jmp	.LBB3_3
.LBB3_19:
	cmpl	$9, (%rsp)
	jne	.LBB3_21
	movb	$9, 7(%rsp)
	jmp	.LBB3_3
.LBB3_21:
	cmpl	$10, (%rsp)
	jne	.LBB3_23
	movb	$10, 7(%rsp)
	jmp	.LBB3_3
.LBB3_23:
	cmpl	$11, (%rsp)
	jne	.LBB3_25
	movb	$11, 7(%rsp)
	jmp	.LBB3_3
.LBB3_25:
	cmpl	$12, (%rsp)
	jne	.LBB3_27
	movb	$12, 7(%rsp)
	jmp	.LBB3_3
.LBB3_27:
	cmpl	$13, (%rsp)
	jne	.LBB3_29
	movb	$13, 7(%rsp)
	jmp	.LBB3_3
.LBB3_29:
	cmpl	$14, (%rsp)
	jne	.LBB3_31
	movb	$14, 7(%rsp)
	jmp	.LBB3_3
.LBB3_31:
	cmpl	$15, (%rsp)
	jne	.LBB3_33
	movb	$15, 7(%rsp)
	jmp	.LBB3_3
.LBB3_33:
	cmpl	$16, (%rsp)
	jne	.LBB3_35
	movb	$16, 7(%rsp)
	jmp	.LBB3_3
.LBB3_35:
	cmpl	$17, (%rsp)
	jne	.LBB3_37
	movb	$17, 7(%rsp)
	jmp	.LBB3_3
.LBB3_37:
	cmpl	$18, (%rsp)
	jne	.LBB3_39
	movb	$18, 7(%rsp)
	jmp	.LBB3_3
.LBB3_39:
	cmpl	$19, (%rsp)
	jne	.LBB3_41
	movb	$19, 7(%rsp)
	jmp	.LBB3_3
.LBB3_41:
	cmpl	$20, (%rsp)
	jne	.LBB3_43
	movb	$20, 7(%rsp)
	jmp	.LBB3_3
.LBB3_43:
	cmpl	$21, (%rsp)
	jne	.LBB3_45
	movb	$21, 7(%rsp)
	jmp	.LBB3_3
.LBB3_45:
	cmpl	$22, (%rsp)
	jne	.LBB3_47
	movb	$22, 7(%rsp)
	jmp	.LBB3_3
.LBB3_47:
	cmpl	$23, (%rsp)
	jne	.LBB3_49
	movb	$23, 7(%rsp)
	jmp	.LBB3_3
.LBB3_49:
	cmpl	$24, (%rsp)
	jne	.LBB3_51
	movb	$24, 7(%rsp)
	jmp	.LBB3_3
.LBB3_51:
	cmpl	$25, (%rsp)
	jne	.LBB3_53
	movb	$25, 7(%rsp)
	jmp	.LBB3_3
.LBB3_53:
	cmpl	$26, (%rsp)
	jne	.LBB3_55
	movb	$26, 7(%rsp)
	jmp	.LBB3_3
.LBB3_55:
	cmpl	$27, (%rsp)
	jne	.LBB3_57
	movb	$27, 7(%rsp)
	jmp	.LBB3_3
.LBB3_57:
	cmpl	$28, (%rsp)
	jne	.LBB3_59
	movb	$28, 7(%rsp)
	jmp	.LBB3_3
.LBB3_59:
	cmpl	$29, (%rsp)
	jne	.LBB3_61
	movb	$29, 7(%rsp)
	jmp	.LBB3_3
.LBB3_61:
	cmpl	$30, (%rsp)
	jne	.LBB3_63
	movb	$30, 7(%rsp)
	jmp	.LBB3_3
.LBB3_63:
	cmpl	$31, (%rsp)
	jne	.LBB3_65
	movb	$31, 7(%rsp)
	jmp	.LBB3_3
.LBB3_65:
	cmpl	$32, (%rsp)
	jne	.LBB3_67
	movb	$32, 7(%rsp)
	jmp	.LBB3_3
.LBB3_67:
	cmpl	$33, (%rsp)
	jne	.LBB3_69
	movb	$33, 7(%rsp)
	jmp	.LBB3_3
.LBB3_69:
	cmpl	$34, (%rsp)
	jne	.LBB3_71
	movb	$34, 7(%rsp)
	jmp	.LBB3_3
.LBB3_71:
	cmpl	$35, (%rsp)
	jne	.LBB3_73
	movb	$35, 7(%rsp)
	jmp	.LBB3_3
.LBB3_73:
	cmpl	$39, (%rsp)
	jne	.LBB3_75
	movb	$39, 7(%rsp)
	jmp	.LBB3_3
.LBB3_75:
	cmpl	$37, (%rsp)
	jne	.LBB3_77
	movb	$37, 7(%rsp)
	jmp	.LBB3_3
.LBB3_77:
	cmpl	$36, (%rsp)
	jne	.LBB3_79
	movb	$36, 7(%rsp)
	jmp	.LBB3_3
.LBB3_79:
	cmpl	$38, (%rsp)
	jne	.LBB3_81
	movb	$38, 7(%rsp)
	jmp	.LBB3_3
.LBB3_81:
	cmpl	$40, (%rsp)
	jne	.LBB3_83
	movb	$40, 7(%rsp)
	jmp	.LBB3_3
.LBB3_83:
	movb	$41, 7(%rsp)
	jmp	.LBB3_3
	.seh_endproc

	.def	_ZN3std2rt10lang_start17h5de13e7aa6e7231cE;
	.scl	2;
	.type	32;
	.endef
	.section	.text,"xr",one_only,_ZN3std2rt10lang_start17h5de13e7aa6e7231cE
	.globl	_ZN3std2rt10lang_start17h5de13e7aa6e7231cE
	.p2align	4, 0x90
_ZN3std2rt10lang_start17h5de13e7aa6e7231cE:
.seh_proc _ZN3std2rt10lang_start17h5de13e7aa6e7231cE
	subq	$56, %rsp
	.seh_stackalloc 56
	.seh_endprologue
	movb	%r9b, %al
	movq	%r8, %r9
	movq	%rdx, %r8
	movq	%rcx, 48(%rsp)
	leaq	48(%rsp), %rcx
	leaq	__unnamed_4(%rip), %rdx
	movb	%al, 32(%rsp)
	callq	_ZN3std2rt19lang_start_internal17hdce347e0d7d6b956E
	movq	%rax, 40(%rsp)
	movq	40(%rsp), %rax
	addq	$56, %rsp
	retq
	.seh_endproc

	.def	_ZN3std2rt10lang_start28_$u7b$$u7b$closure$u7d$$u7d$17h35702adb5f968ee4E;
	.scl	3;
	.type	32;
	.endef
	.section	.text,"xr",one_only,_ZN3std2rt10lang_start28_$u7b$$u7b$closure$u7d$$u7d$17h35702adb5f968ee4E
	.p2align	4, 0x90
_ZN3std2rt10lang_start28_$u7b$$u7b$closure$u7d$$u7d$17h35702adb5f968ee4E:
.seh_proc _ZN3std2rt10lang_start28_$u7b$$u7b$closure$u7d$$u7d$17h35702adb5f968ee4E
	subq	$40, %rsp
	.seh_stackalloc 40
	.seh_endprologue
	movq	(%rcx), %rcx
	callq	_ZN3std3sys9backtrace28__rust_begin_short_backtrace17h50572332abeb3b76E
	callq	_ZN54_$LT$$LP$$RP$$u20$as$u20$std..process..Termination$GT$6report17h8d0b3a359f8c96feE
	movl	%eax, 36(%rsp)
	movl	36(%rsp), %eax
	addq	$40, %rsp
	retq
	.seh_endproc

	.def	_ZN3std3ffi6os_str85_$LT$impl$u20$core..convert..AsRef$LT$std..ffi..os_str..OsStr$GT$$u20$for$u20$str$GT$6as_ref17h416d9dae6891011cE;
	.scl	3;
	.type	32;
	.endef
	.section	.text,"xr",one_only,_ZN3std3ffi6os_str85_$LT$impl$u20$core..convert..AsRef$LT$std..ffi..os_str..OsStr$GT$$u20$for$u20$str$GT$6as_ref17h416d9dae6891011cE
	.p2align	4, 0x90
_ZN3std3ffi6os_str85_$LT$impl$u20$core..convert..AsRef$LT$std..ffi..os_str..OsStr$GT$$u20$for$u20$str$GT$6as_ref17h416d9dae6891011cE:
	movq	%rcx, %rax
	retq

	.def	_ZN3std3sys9backtrace28__rust_begin_short_backtrace17h50572332abeb3b76E;
	.scl	3;
	.type	32;
	.endef
	.section	.text,"xr",one_only,_ZN3std3sys9backtrace28__rust_begin_short_backtrace17h50572332abeb3b76E
	.p2align	4, 0x90
_ZN3std3sys9backtrace28__rust_begin_short_backtrace17h50572332abeb3b76E:
.seh_proc _ZN3std3sys9backtrace28__rust_begin_short_backtrace17h50572332abeb3b76E
	subq	$40, %rsp
	.seh_stackalloc 40
	.seh_endprologue
	callq	_ZN4core3ops8function6FnOnce9call_once17hc484bb46a940ce85E
	#APP
	#NO_APP
	nop
	addq	$40, %rsp
	retq
	.seh_endproc

	.def	_ZN3std4path77_$LT$impl$u20$core..convert..AsRef$LT$std..path..Path$GT$$u20$for$u20$str$GT$6as_ref17h761de4fa187704d5E;
	.scl	3;
	.type	32;
	.endef
	.section	.text,"xr",one_only,_ZN3std4path77_$LT$impl$u20$core..convert..AsRef$LT$std..path..Path$GT$$u20$for$u20$str$GT$6as_ref17h761de4fa187704d5E
	.p2align	4, 0x90
_ZN3std4path77_$LT$impl$u20$core..convert..AsRef$LT$std..path..Path$GT$$u20$for$u20$str$GT$6as_ref17h761de4fa187704d5E:
.seh_proc _ZN3std4path77_$LT$impl$u20$core..convert..AsRef$LT$std..path..Path$GT$$u20$for$u20$str$GT$6as_ref17h761de4fa187704d5E
	subq	$40, %rsp
	.seh_stackalloc 40
	.seh_endprologue
	callq	_ZN3std3ffi6os_str85_$LT$impl$u20$core..convert..AsRef$LT$std..ffi..os_str..OsStr$GT$$u20$for$u20$str$GT$6as_ref17h416d9dae6891011cE
	nop
	addq	$40, %rsp
	retq
	.seh_endproc

	.def	_ZN44_$LT$$RF$T$u20$as$u20$core..fmt..Display$GT$3fmt17hdadb0ec942538df5E;
	.scl	3;
	.type	32;
	.endef
	.section	.text,"xr",one_only,_ZN44_$LT$$RF$T$u20$as$u20$core..fmt..Display$GT$3fmt17hdadb0ec942538df5E
	.p2align	4, 0x90
_ZN44_$LT$$RF$T$u20$as$u20$core..fmt..Display$GT$3fmt17hdadb0ec942538df5E:
.seh_proc _ZN44_$LT$$RF$T$u20$as$u20$core..fmt..Display$GT$3fmt17hdadb0ec942538df5E
	subq	$40, %rsp
	.seh_stackalloc 40
	.seh_endprologue
	movq	(%rcx), %rcx
	callq	_ZN4core3fmt3num3imp52_$LT$impl$u20$core..fmt..Display$u20$for$u20$i32$GT$3fmt17hb3affd82c5f78a70E
	andb	$1, %al
	movzbl	%al, %eax
	addq	$40, %rsp
	retq
	.seh_endproc

	.def	_ZN49_$LT$usize$u20$as$u20$core..iter..range..Step$GT$17forward_unchecked17h08b11184554e6769E;
	.scl	3;
	.type	32;
	.endef
	.section	.text,"xr",one_only,_ZN49_$LT$usize$u20$as$u20$core..iter..range..Step$GT$17forward_unchecked17h08b11184554e6769E
	.p2align	4, 0x90
_ZN49_$LT$usize$u20$as$u20$core..iter..range..Step$GT$17forward_unchecked17h08b11184554e6769E:
.seh_proc _ZN49_$LT$usize$u20$as$u20$core..iter..range..Step$GT$17forward_unchecked17h08b11184554e6769E
	subq	$56, %rsp
	.seh_stackalloc 56
	.seh_endprologue
	movq	%rdx, 40(%rsp)
	movq	%rcx, 48(%rsp)
	jmp	.LBB10_1
.LBB10_1:
	movq	40(%rsp), %rdx
	movq	48(%rsp), %rcx
	callq	_ZN4core3num23_$LT$impl$u20$usize$GT$13unchecked_add18precondition_check17h843be235747939b7E
	movq	40(%rsp), %rcx
	movq	48(%rsp), %rax
	addq	%rcx, %rax
	addq	$56, %rsp
	retq
	.seh_endproc

	.def	_ZN49_$LT$usize$u20$as$u20$core..iter..range..Step$GT$18backward_unchecked17hd0c8022854f8608fE;
	.scl	3;
	.type	32;
	.endef
	.section	.text,"xr",one_only,_ZN49_$LT$usize$u20$as$u20$core..iter..range..Step$GT$18backward_unchecked17hd0c8022854f8608fE
	.p2align	4, 0x90
_ZN49_$LT$usize$u20$as$u20$core..iter..range..Step$GT$18backward_unchecked17hd0c8022854f8608fE:
.seh_proc _ZN49_$LT$usize$u20$as$u20$core..iter..range..Step$GT$18backward_unchecked17hd0c8022854f8608fE
	subq	$56, %rsp
	.seh_stackalloc 56
	.seh_endprologue
	movq	%rdx, 40(%rsp)
	movq	%rcx, 48(%rsp)
	jmp	.LBB11_1
.LBB11_1:
	movq	40(%rsp), %rdx
	movq	48(%rsp), %rcx
	callq	_ZN4core3num23_$LT$impl$u20$usize$GT$13unchecked_sub18precondition_check17h12981dbbfe89ef1dE
	movq	40(%rsp), %rcx
	movq	48(%rsp), %rax
	subq	%rcx, %rax
	addq	$56, %rsp
	retq
	.seh_endproc

	.def	_ZN4core10intrinsics11size_of_val17h061685d5d636d9f8E;
	.scl	3;
	.type	32;
	.endef
	.section	.text,"xr",one_only,_ZN4core10intrinsics11size_of_val17h061685d5d636d9f8E
	.p2align	4, 0x90
_ZN4core10intrinsics11size_of_val17h061685d5d636d9f8E:
	ud2

	.def	_ZN4core10intrinsics11size_of_val17h580c8a91a428c9e1E;
	.scl	3;
	.type	32;
	.endef
	.section	.text,"xr",one_only,_ZN4core10intrinsics11size_of_val17h580c8a91a428c9e1E
	.p2align	4, 0x90
_ZN4core10intrinsics11size_of_val17h580c8a91a428c9e1E:
	ud2

	.def	_ZN4core10intrinsics11size_of_val17hfd215df3a1e029ceE;
	.scl	3;
	.type	32;
	.endef
	.section	.text,"xr",one_only,_ZN4core10intrinsics11size_of_val17hfd215df3a1e029ceE
	.p2align	4, 0x90
_ZN4core10intrinsics11size_of_val17hfd215df3a1e029ceE:
	ud2

	.def	_ZN4core10intrinsics16min_align_of_val17h2a1839101847ef22E;
	.scl	3;
	.type	32;
	.endef
	.section	.text,"xr",one_only,_ZN4core10intrinsics16min_align_of_val17h2a1839101847ef22E
	.p2align	4, 0x90
_ZN4core10intrinsics16min_align_of_val17h2a1839101847ef22E:
	ud2

	.def	_ZN4core10intrinsics16min_align_of_val17hf47c1b5702aee118E;
	.scl	3;
	.type	32;
	.endef
	.section	.text,"xr",one_only,_ZN4core10intrinsics16min_align_of_val17hf47c1b5702aee118E
	.p2align	4, 0x90
_ZN4core10intrinsics16min_align_of_val17hf47c1b5702aee118E:
	ud2

	.def	_ZN4core3cmp5impls50_$LT$impl$u20$core..cmp..Ord$u20$for$u20$usize$GT$3cmp17hc509b6de429419eeE;
	.scl	3;
	.type	32;
	.endef
	.section	.text,"xr",one_only,_ZN4core3cmp5impls50_$LT$impl$u20$core..cmp..Ord$u20$for$u20$usize$GT$3cmp17hc509b6de429419eeE
	.p2align	4, 0x90
_ZN4core3cmp5impls50_$LT$impl$u20$core..cmp..Ord$u20$for$u20$usize$GT$3cmp17hc509b6de429419eeE:
	movq	(%rcx), %rcx
	movq	(%rdx), %rdx
	cmpq	%rdx, %rcx
	seta	%al
	andb	$1, %al
	cmpq	%rdx, %rcx
	setb	%cl
	andb	$1, %cl
	subb	%cl, %al
	retq

	.def	_ZN4core3cmp6max_by17h5eb3d25a27e456a3E;
	.scl	3;
	.type	32;
	.endef
	.section	.text,"xr",one_only,_ZN4core3cmp6max_by17h5eb3d25a27e456a3E
	.p2align	4, 0x90
_ZN4core3cmp6max_by17h5eb3d25a27e456a3E:
.Lfunc_begin3:
.seh_proc _ZN4core3cmp6max_by17h5eb3d25a27e456a3E
	.seh_handler __CxxFrameHandler3, @unwind, @except
	pushq	%rbp
	.seh_pushreg %rbp
	subq	$80, %rsp
	.seh_stackalloc 80
	leaq	80(%rsp), %rbp
	.seh_setframe %rbp, 80
	.seh_endprologue
	movq	$-2, -8(%rbp)
	movq	%rcx, -40(%rbp)
	movq	%rdx, -32(%rbp)
	movb	$1, -9(%rbp)
.Ltmp12:
	leaq	-40(%rbp), %rcx
	leaq	-32(%rbp), %rdx
	callq	_ZN4core3ops8function6FnOnce9call_once17h9cb85df5e0ad1d7eE
.Ltmp13:
	movb	%al, -41(%rbp)
	jmp	.LBB18_2
.LBB18_2:
	movb	-41(%rbp), %al
	movb	%al, -10(%rbp)
	movb	-10(%rbp), %al
	incb	%al
	subb	$2, %al
	jb	.LBB18_4
	jmp	.LBB18_11
.LBB18_11:
	jmp	.LBB18_5
	ud2
.LBB18_4:
	movq	-32(%rbp), %rax
	movq	%rax, -24(%rbp)
	testb	$1, -9(%rbp)
	jne	.LBB18_7
	jmp	.LBB18_6
.LBB18_5:
	movb	$0, -9(%rbp)
	movq	-40(%rbp), %rax
	movq	%rax, -24(%rbp)
.LBB18_6:
	movq	-24(%rbp), %rax
	addq	$80, %rsp
	popq	%rbp
	retq
.LBB18_7:
	jmp	.LBB18_6
	.seh_handlerdata
	.long	($cppxdata$_ZN4core3cmp6max_by17h5eb3d25a27e456a3E)@IMGREL
	.section	.text,"xr",one_only,_ZN4core3cmp6max_by17h5eb3d25a27e456a3E
	.seh_endproc
	.def	"?dtor$1@?0?_ZN4core3cmp6max_by17h5eb3d25a27e456a3E@4HA";
	.scl	3;
	.type	32;
	.endef
	.p2align	4, 0x90
"?dtor$1@?0?_ZN4core3cmp6max_by17h5eb3d25a27e456a3E@4HA":
.seh_proc "?dtor$1@?0?_ZN4core3cmp6max_by17h5eb3d25a27e456a3E@4HA"
.LBB18_1:
	movq	%rdx, 16(%rsp)
	pushq	%rbp
	.seh_pushreg %rbp
	subq	$32, %rsp
	.seh_stackalloc 32
	leaq	80(%rdx), %rbp
	.seh_endprologue
	addq	$32, %rsp
	popq	%rbp
	retq
	.seh_handlerdata
	.section	.text,"xr",one_only,_ZN4core3cmp6max_by17h5eb3d25a27e456a3E
	.seh_endproc
	.def	"?dtor$8@?0?_ZN4core3cmp6max_by17h5eb3d25a27e456a3E@4HA";
	.scl	3;
	.type	32;
	.endef
	.p2align	4, 0x90
"?dtor$8@?0?_ZN4core3cmp6max_by17h5eb3d25a27e456a3E@4HA":
.seh_proc "?dtor$8@?0?_ZN4core3cmp6max_by17h5eb3d25a27e456a3E@4HA"
.LBB18_8:
	movq	%rdx, 16(%rsp)
	pushq	%rbp
	.seh_pushreg %rbp
	subq	$32, %rsp
	.seh_stackalloc 32
	leaq	80(%rdx), %rbp
	.seh_endprologue
	testb	$1, -9(%rbp)
	jne	.LBB18_10
.LBB18_9:
	addq	$32, %rsp
	popq	%rbp
	retq
.LBB18_10:
	jmp	.LBB18_9
.Lfunc_end3:
	.seh_handlerdata
	.section	.text,"xr",one_only,_ZN4core3cmp6max_by17h5eb3d25a27e456a3E
	.seh_endproc
	.section	.xdata,"dr",associative,_ZN4core3cmp6max_by17h5eb3d25a27e456a3E
	.p2align	2, 0x0
$cppxdata$_ZN4core3cmp6max_by17h5eb3d25a27e456a3E:
	.long	429065506
	.long	2
	.long	($stateUnwindMap$_ZN4core3cmp6max_by17h5eb3d25a27e456a3E)@IMGREL
	.long	0
	.long	0
	.long	3
	.long	($ip2state$_ZN4core3cmp6max_by17h5eb3d25a27e456a3E)@IMGREL
	.long	72
	.long	0
	.long	1
$stateUnwindMap$_ZN4core3cmp6max_by17h5eb3d25a27e456a3E:
	.long	-1
	.long	"?dtor$8@?0?_ZN4core3cmp6max_by17h5eb3d25a27e456a3E@4HA"@IMGREL
	.long	0
	.long	"?dtor$1@?0?_ZN4core3cmp6max_by17h5eb3d25a27e456a3E@4HA"@IMGREL
$ip2state$_ZN4core3cmp6max_by17h5eb3d25a27e456a3E:
	.long	.Lfunc_begin3@IMGREL
	.long	-1
	.long	.Ltmp12@IMGREL+1
	.long	1
	.long	.Ltmp13@IMGREL+1
	.long	-1
	.section	.text,"xr",one_only,_ZN4core3cmp6max_by17h5eb3d25a27e456a3E

	.def	_ZN4core3fmt9Arguments6new_v117h5319793f063a8c9dE;
	.scl	3;
	.type	32;
	.endef
	.section	.text,"xr",one_only,_ZN4core3fmt9Arguments6new_v117h5319793f063a8c9dE
	.p2align	4, 0x90
_ZN4core3fmt9Arguments6new_v117h5319793f063a8c9dE:
	movq	%rcx, %rax
	movq	%rdx, (%rcx)
	movq	$4, 8(%rcx)
	movq	__unnamed_5(%rip), %r9
	movq	__unnamed_5+8(%rip), %rdx
	movq	%r9, 32(%rcx)
	movq	%rdx, 40(%rcx)
	movq	%r8, 16(%rcx)
	movq	$3, 24(%rcx)
	retq

	.def	_ZN4core3num23_$LT$impl$u20$usize$GT$13unchecked_add18precondition_check17h843be235747939b7E;
	.scl	3;
	.type	32;
	.endef
	.section	.text,"xr",one_only,_ZN4core3num23_$LT$impl$u20$usize$GT$13unchecked_add18precondition_check17h843be235747939b7E
	.p2align	4, 0x90
_ZN4core3num23_$LT$impl$u20$usize$GT$13unchecked_add18precondition_check17h843be235747939b7E:
.seh_proc _ZN4core3num23_$LT$impl$u20$usize$GT$13unchecked_add18precondition_check17h843be235747939b7E
	subq	$40, %rsp
	.seh_stackalloc 40
	.seh_endprologue
	addq	%rdx, %rcx
	setb	%al
	jb	.LBB20_2
	addq	$40, %rsp
	retq
.LBB20_2:
	leaq	__unnamed_6(%rip), %rcx
	movl	$69, %edx
	callq	_ZN4core9panicking14panic_nounwind17h7093548e2b172a67E
	int3
	.seh_endproc

	.def	_ZN4core3num23_$LT$impl$u20$usize$GT$13unchecked_mul18precondition_check17hbe390293b6ae62a5E;
	.scl	3;
	.type	32;
	.endef
	.section	.text,"xr",one_only,_ZN4core3num23_$LT$impl$u20$usize$GT$13unchecked_mul18precondition_check17hbe390293b6ae62a5E
	.p2align	4, 0x90
_ZN4core3num23_$LT$impl$u20$usize$GT$13unchecked_mul18precondition_check17hbe390293b6ae62a5E:
.seh_proc _ZN4core3num23_$LT$impl$u20$usize$GT$13unchecked_mul18precondition_check17hbe390293b6ae62a5E
	subq	$40, %rsp
	.seh_stackalloc 40
	.seh_endprologue
	movq	%rcx, %rax
	mulq	%rdx
	seto	%al
	jo	.LBB21_2
	addq	$40, %rsp
	retq
.LBB21_2:
	leaq	__unnamed_7(%rip), %rcx
	movl	$69, %edx
	callq	_ZN4core9panicking14panic_nounwind17h7093548e2b172a67E
	int3
	.seh_endproc

	.def	_ZN4core3num23_$LT$impl$u20$usize$GT$13unchecked_sub18precondition_check17h12981dbbfe89ef1dE;
	.scl	3;
	.type	32;
	.endef
	.section	.text,"xr",one_only,_ZN4core3num23_$LT$impl$u20$usize$GT$13unchecked_sub18precondition_check17h12981dbbfe89ef1dE
	.p2align	4, 0x90
_ZN4core3num23_$LT$impl$u20$usize$GT$13unchecked_sub18precondition_check17h12981dbbfe89ef1dE:
.seh_proc _ZN4core3num23_$LT$impl$u20$usize$GT$13unchecked_sub18precondition_check17h12981dbbfe89ef1dE
	subq	$40, %rsp
	.seh_stackalloc 40
	.seh_endprologue
	cmpq	%rdx, %rcx
	jb	.LBB22_2
	addq	$40, %rsp
	retq
.LBB22_2:
	leaq	__unnamed_8(%rip), %rcx
	movl	$69, %edx
	callq	_ZN4core9panicking14panic_nounwind17h7093548e2b172a67E
	int3
	.seh_endproc

	.def	_ZN4core3ops8function6FnOnce40call_once$u7b$$u7b$vtable.shim$u7d$$u7d$17he3e313fe47af4a6fE;
	.scl	3;
	.type	32;
	.endef
	.section	.text,"xr",one_only,_ZN4core3ops8function6FnOnce40call_once$u7b$$u7b$vtable.shim$u7d$$u7d$17he3e313fe47af4a6fE
	.p2align	4, 0x90
_ZN4core3ops8function6FnOnce40call_once$u7b$$u7b$vtable.shim$u7d$$u7d$17he3e313fe47af4a6fE:
.seh_proc _ZN4core3ops8function6FnOnce40call_once$u7b$$u7b$vtable.shim$u7d$$u7d$17he3e313fe47af4a6fE
	subq	$40, %rsp
	.seh_stackalloc 40
	.seh_endprologue
	movq	(%rcx), %rcx
	callq	_ZN4core3ops8function6FnOnce9call_once17hb7b3d751b2993edbE
	nop
	addq	$40, %rsp
	retq
	.seh_endproc

	.def	_ZN4core3ops8function6FnOnce9call_once17h9cb85df5e0ad1d7eE;
	.scl	3;
	.type	32;
	.endef
	.section	.text,"xr",one_only,_ZN4core3ops8function6FnOnce9call_once17h9cb85df5e0ad1d7eE
	.p2align	4, 0x90
_ZN4core3ops8function6FnOnce9call_once17h9cb85df5e0ad1d7eE:
.seh_proc _ZN4core3ops8function6FnOnce9call_once17h9cb85df5e0ad1d7eE
	subq	$56, %rsp
	.seh_stackalloc 56
	.seh_endprologue
	movq	%rcx, 40(%rsp)
	movq	%rdx, 48(%rsp)
	movq	40(%rsp), %rcx
	movq	48(%rsp), %rdx
	callq	_ZN4core3cmp5impls50_$LT$impl$u20$core..cmp..Ord$u20$for$u20$usize$GT$3cmp17hc509b6de429419eeE
	nop
	addq	$56, %rsp
	retq
	.seh_endproc

	.def	_ZN4core3ops8function6FnOnce9call_once17hb7b3d751b2993edbE;
	.scl	3;
	.type	32;
	.endef
	.section	.text,"xr",one_only,_ZN4core3ops8function6FnOnce9call_once17hb7b3d751b2993edbE
	.p2align	4, 0x90
_ZN4core3ops8function6FnOnce9call_once17hb7b3d751b2993edbE:
.Lfunc_begin4:
.seh_proc _ZN4core3ops8function6FnOnce9call_once17hb7b3d751b2993edbE
	.seh_handler __CxxFrameHandler3, @unwind, @except
	pushq	%rbp
	.seh_pushreg %rbp
	subq	$64, %rsp
	.seh_stackalloc 64
	leaq	64(%rsp), %rbp
	.seh_setframe %rbp, 64
	.seh_endprologue
	movq	$-2, -8(%rbp)
	movq	%rcx, -16(%rbp)
.Ltmp14:
	leaq	-16(%rbp), %rcx
	callq	_ZN3std2rt10lang_start28_$u7b$$u7b$closure$u7d$$u7d$17h35702adb5f968ee4E
.Ltmp15:
	movl	%eax, -20(%rbp)
	jmp	.LBB25_2
.LBB25_2:
	movl	-20(%rbp), %eax
	addq	$64, %rsp
	popq	%rbp
	retq
	.seh_handlerdata
	.long	($cppxdata$_ZN4core3ops8function6FnOnce9call_once17hb7b3d751b2993edbE)@IMGREL
	.section	.text,"xr",one_only,_ZN4core3ops8function6FnOnce9call_once17hb7b3d751b2993edbE
	.seh_endproc
	.def	"?dtor$1@?0?_ZN4core3ops8function6FnOnce9call_once17hb7b3d751b2993edbE@4HA";
	.scl	3;
	.type	32;
	.endef
	.p2align	4, 0x90
"?dtor$1@?0?_ZN4core3ops8function6FnOnce9call_once17hb7b3d751b2993edbE@4HA":
.seh_proc "?dtor$1@?0?_ZN4core3ops8function6FnOnce9call_once17hb7b3d751b2993edbE@4HA"
.LBB25_1:
	movq	%rdx, 16(%rsp)
	pushq	%rbp
	.seh_pushreg %rbp
	subq	$32, %rsp
	.seh_stackalloc 32
	leaq	64(%rdx), %rbp
	.seh_endprologue
	addq	$32, %rsp
	popq	%rbp
	retq
.Lfunc_end4:
	.seh_handlerdata
	.section	.text,"xr",one_only,_ZN4core3ops8function6FnOnce9call_once17hb7b3d751b2993edbE
	.seh_endproc
	.section	.xdata,"dr",associative,_ZN4core3ops8function6FnOnce9call_once17hb7b3d751b2993edbE
	.p2align	2, 0x0
$cppxdata$_ZN4core3ops8function6FnOnce9call_once17hb7b3d751b2993edbE:
	.long	429065506
	.long	1
	.long	($stateUnwindMap$_ZN4core3ops8function6FnOnce9call_once17hb7b3d751b2993edbE)@IMGREL
	.long	0
	.long	0
	.long	3
	.long	($ip2state$_ZN4core3ops8function6FnOnce9call_once17hb7b3d751b2993edbE)@IMGREL
	.long	56
	.long	0
	.long	1
$stateUnwindMap$_ZN4core3ops8function6FnOnce9call_once17hb7b3d751b2993edbE:
	.long	-1
	.long	"?dtor$1@?0?_ZN4core3ops8function6FnOnce9call_once17hb7b3d751b2993edbE@4HA"@IMGREL
$ip2state$_ZN4core3ops8function6FnOnce9call_once17hb7b3d751b2993edbE:
	.long	.Lfunc_begin4@IMGREL
	.long	-1
	.long	.Ltmp14@IMGREL+1
	.long	0
	.long	.Ltmp15@IMGREL+1
	.long	-1
	.section	.text,"xr",one_only,_ZN4core3ops8function6FnOnce9call_once17hb7b3d751b2993edbE

	.def	_ZN4core3ops8function6FnOnce9call_once17hc484bb46a940ce85E;
	.scl	3;
	.type	32;
	.endef
	.section	.text,"xr",one_only,_ZN4core3ops8function6FnOnce9call_once17hc484bb46a940ce85E
	.p2align	4, 0x90
_ZN4core3ops8function6FnOnce9call_once17hc484bb46a940ce85E:
.seh_proc _ZN4core3ops8function6FnOnce9call_once17hc484bb46a940ce85E
	subq	$40, %rsp
	.seh_stackalloc 40
	.seh_endprologue
	callq	*%rcx
	nop
	addq	$40, %rsp
	retq
	.seh_endproc

	.def	_ZN4core3ptr101drop_in_place$LT$std..io..error..ErrorData$LT$alloc..boxed..Box$LT$std..io..error..Custom$GT$$GT$$GT$17h50b24542748dbd9cE;
	.scl	3;
	.type	32;
	.endef
	.section	.text,"xr",one_only,_ZN4core3ptr101drop_in_place$LT$std..io..error..ErrorData$LT$alloc..boxed..Box$LT$std..io..error..Custom$GT$$GT$$GT$17h50b24542748dbd9cE
	.p2align	4, 0x90
_ZN4core3ptr101drop_in_place$LT$std..io..error..ErrorData$LT$alloc..boxed..Box$LT$std..io..error..Custom$GT$$GT$$GT$17h50b24542748dbd9cE:
.seh_proc _ZN4core3ptr101drop_in_place$LT$std..io..error..ErrorData$LT$alloc..boxed..Box$LT$std..io..error..Custom$GT$$GT$$GT$17h50b24542748dbd9cE
	subq	$40, %rsp
	.seh_stackalloc 40
	.seh_endprologue
	movq	%rcx, 32(%rsp)
	movb	(%rcx), %al
	subb	$3, %al
	jb	.LBB27_2
	jmp	.LBB27_1
.LBB27_1:
	movq	32(%rsp), %rcx
	addq	$8, %rcx
	callq	_ZN4core3ptr68drop_in_place$LT$alloc..boxed..Box$LT$std..io..error..Custom$GT$$GT$17he7790d34edc8ed93E
.LBB27_2:
	nop
	addq	$40, %rsp
	retq
	.seh_endproc

	.def	_ZN4core3ptr118drop_in_place$LT$alloc..boxed..Box$LT$dyn$u20$core..error..Error$u2b$core..marker..Sync$u2b$core..marker..Send$GT$$GT$17hd72e9e076eab1f0cE;
	.scl	3;
	.type	32;
	.endef
	.section	.text,"xr",one_only,_ZN4core3ptr118drop_in_place$LT$alloc..boxed..Box$LT$dyn$u20$core..error..Error$u2b$core..marker..Sync$u2b$core..marker..Send$GT$$GT$17hd72e9e076eab1f0cE
	.p2align	4, 0x90
_ZN4core3ptr118drop_in_place$LT$alloc..boxed..Box$LT$dyn$u20$core..error..Error$u2b$core..marker..Sync$u2b$core..marker..Send$GT$$GT$17hd72e9e076eab1f0cE:
.Lfunc_begin5:
.seh_proc _ZN4core3ptr118drop_in_place$LT$alloc..boxed..Box$LT$dyn$u20$core..error..Error$u2b$core..marker..Sync$u2b$core..marker..Send$GT$$GT$17hd72e9e076eab1f0cE
	.seh_handler __CxxFrameHandler3, @unwind, @except
	pushq	%rbp
	.seh_pushreg %rbp
	subq	$64, %rsp
	.seh_stackalloc 64
	leaq	64(%rsp), %rbp
	.seh_setframe %rbp, 64
	.seh_endprologue
	movq	$-2, -8(%rbp)
	movq	%rcx, -32(%rbp)
	movq	(%rcx), %rax
	movq	%rax, -24(%rbp)
	movq	8(%rcx), %rax
	movq	(%rax), %rax
	movq	%rax, -16(%rbp)
	cmpq	$0, %rax
	je	.LBB28_2
.Ltmp16:
	movq	-16(%rbp), %rax
	movq	-24(%rbp), %rcx
	callq	*%rax
.Ltmp17:
	jmp	.LBB28_2
.LBB28_2:
	movq	-32(%rbp), %rcx
	callq	_ZN72_$LT$alloc..boxed..Box$LT$T$C$A$GT$$u20$as$u20$core..ops..drop..Drop$GT$4drop17h46aadc538bfdb972E
	nop
	addq	$64, %rsp
	popq	%rbp
	retq
	.seh_handlerdata
	.long	($cppxdata$_ZN4core3ptr118drop_in_place$LT$alloc..boxed..Box$LT$dyn$u20$core..error..Error$u2b$core..marker..Sync$u2b$core..marker..Send$GT$$GT$17hd72e9e076eab1f0cE)@IMGREL
	.section	.text,"xr",one_only,_ZN4core3ptr118drop_in_place$LT$alloc..boxed..Box$LT$dyn$u20$core..error..Error$u2b$core..marker..Sync$u2b$core..marker..Send$GT$$GT$17hd72e9e076eab1f0cE
	.seh_endproc
	.def	"?dtor$3@?0?_ZN4core3ptr118drop_in_place$LT$alloc..boxed..Box$LT$dyn$u20$core..error..Error$u2b$core..marker..Sync$u2b$core..marker..Send$GT$$GT$17hd72e9e076eab1f0cE@4HA";
	.scl	3;
	.type	32;
	.endef
	.p2align	4, 0x90
"?dtor$3@?0?_ZN4core3ptr118drop_in_place$LT$alloc..boxed..Box$LT$dyn$u20$core..error..Error$u2b$core..marker..Sync$u2b$core..marker..Send$GT$$GT$17hd72e9e076eab1f0cE@4HA":
.seh_proc "?dtor$3@?0?_ZN4core3ptr118drop_in_place$LT$alloc..boxed..Box$LT$dyn$u20$core..error..Error$u2b$core..marker..Sync$u2b$core..marker..Send$GT$$GT$17hd72e9e076eab1f0cE@4HA"
.LBB28_3:
	movq	%rdx, 16(%rsp)
	pushq	%rbp
	.seh_pushreg %rbp
	subq	$32, %rsp
	.seh_stackalloc 32
	leaq	64(%rdx), %rbp
	.seh_endprologue
	movq	-32(%rbp), %rcx
	callq	_ZN72_$LT$alloc..boxed..Box$LT$T$C$A$GT$$u20$as$u20$core..ops..drop..Drop$GT$4drop17h46aadc538bfdb972E
	nop
	addq	$32, %rsp
	popq	%rbp
	retq
.Lfunc_end5:
	.seh_handlerdata
	.section	.text,"xr",one_only,_ZN4core3ptr118drop_in_place$LT$alloc..boxed..Box$LT$dyn$u20$core..error..Error$u2b$core..marker..Sync$u2b$core..marker..Send$GT$$GT$17hd72e9e076eab1f0cE
	.seh_endproc
	.section	.xdata,"dr",associative,_ZN4core3ptr118drop_in_place$LT$alloc..boxed..Box$LT$dyn$u20$core..error..Error$u2b$core..marker..Sync$u2b$core..marker..Send$GT$$GT$17hd72e9e076eab1f0cE
	.p2align	2, 0x0
$cppxdata$_ZN4core3ptr118drop_in_place$LT$alloc..boxed..Box$LT$dyn$u20$core..error..Error$u2b$core..marker..Sync$u2b$core..marker..Send$GT$$GT$17hd72e9e076eab1f0cE:
	.long	429065506
	.long	1
	.long	($stateUnwindMap$_ZN4core3ptr118drop_in_place$LT$alloc..boxed..Box$LT$dyn$u20$core..error..Error$u2b$core..marker..Sync$u2b$core..marker..Send$GT$$GT$17hd72e9e076eab1f0cE)@IMGREL
	.long	0
	.long	0
	.long	3
	.long	($ip2state$_ZN4core3ptr118drop_in_place$LT$alloc..boxed..Box$LT$dyn$u20$core..error..Error$u2b$core..marker..Sync$u2b$core..marker..Send$GT$$GT$17hd72e9e076eab1f0cE)@IMGREL
	.long	56
	.long	0
	.long	1
$stateUnwindMap$_ZN4core3ptr118drop_in_place$LT$alloc..boxed..Box$LT$dyn$u20$core..error..Error$u2b$core..marker..Sync$u2b$core..marker..Send$GT$$GT$17hd72e9e076eab1f0cE:
	.long	-1
	.long	"?dtor$3@?0?_ZN4core3ptr118drop_in_place$LT$alloc..boxed..Box$LT$dyn$u20$core..error..Error$u2b$core..marker..Sync$u2b$core..marker..Send$GT$$GT$17hd72e9e076eab1f0cE@4HA"@IMGREL
$ip2state$_ZN4core3ptr118drop_in_place$LT$alloc..boxed..Box$LT$dyn$u20$core..error..Error$u2b$core..marker..Sync$u2b$core..marker..Send$GT$$GT$17hd72e9e076eab1f0cE:
	.long	.Lfunc_begin5@IMGREL
	.long	-1
	.long	.Ltmp16@IMGREL+1
	.long	0
	.long	.Ltmp17@IMGREL+1
	.long	-1
	.section	.text,"xr",one_only,_ZN4core3ptr118drop_in_place$LT$alloc..boxed..Box$LT$dyn$u20$core..error..Error$u2b$core..marker..Sync$u2b$core..marker..Send$GT$$GT$17hd72e9e076eab1f0cE

	.def	_ZN4core3ptr42drop_in_place$LT$alloc..string..String$GT$17h8632e628fd1a4f71E;
	.scl	3;
	.type	32;
	.endef
	.section	.text,"xr",one_only,_ZN4core3ptr42drop_in_place$LT$alloc..string..String$GT$17h8632e628fd1a4f71E
	.p2align	4, 0x90
_ZN4core3ptr42drop_in_place$LT$alloc..string..String$GT$17h8632e628fd1a4f71E:
.seh_proc _ZN4core3ptr42drop_in_place$LT$alloc..string..String$GT$17h8632e628fd1a4f71E
	subq	$40, %rsp
	.seh_stackalloc 40
	.seh_endprologue
	callq	_ZN4core3ptr46drop_in_place$LT$alloc..vec..Vec$LT$u8$GT$$GT$17hd091368308cb588bE
	nop
	addq	$40, %rsp
	retq
	.seh_endproc

	.def	_ZN4core3ptr42drop_in_place$LT$std..io..error..Error$GT$17hcfa0d9b32f18f535E;
	.scl	3;
	.type	32;
	.endef
	.section	.text,"xr",one_only,_ZN4core3ptr42drop_in_place$LT$std..io..error..Error$GT$17hcfa0d9b32f18f535E
	.p2align	4, 0x90
_ZN4core3ptr42drop_in_place$LT$std..io..error..Error$GT$17hcfa0d9b32f18f535E:
.seh_proc _ZN4core3ptr42drop_in_place$LT$std..io..error..Error$GT$17hcfa0d9b32f18f535E
	subq	$40, %rsp
	.seh_stackalloc 40
	.seh_endprologue
	callq	_ZN4core3ptr57drop_in_place$LT$std..io..error..repr_bitpacked..Repr$GT$17hc89aa8ff29fe16c1E
	nop
	addq	$40, %rsp
	retq
	.seh_endproc

	.def	_ZN4core3ptr43drop_in_place$LT$std..io..error..Custom$GT$17h0a7d79890875bc8aE;
	.scl	3;
	.type	32;
	.endef
	.section	.text,"xr",one_only,_ZN4core3ptr43drop_in_place$LT$std..io..error..Custom$GT$17h0a7d79890875bc8aE
	.p2align	4, 0x90
_ZN4core3ptr43drop_in_place$LT$std..io..error..Custom$GT$17h0a7d79890875bc8aE:
.seh_proc _ZN4core3ptr43drop_in_place$LT$std..io..error..Custom$GT$17h0a7d79890875bc8aE
	subq	$40, %rsp
	.seh_stackalloc 40
	.seh_endprologue
	callq	_ZN4core3ptr118drop_in_place$LT$alloc..boxed..Box$LT$dyn$u20$core..error..Error$u2b$core..marker..Sync$u2b$core..marker..Send$GT$$GT$17hd72e9e076eab1f0cE
	nop
	addq	$40, %rsp
	retq
	.seh_endproc

	.def	_ZN4core3ptr46drop_in_place$LT$alloc..vec..Vec$LT$u8$GT$$GT$17hd091368308cb588bE;
	.scl	3;
	.type	32;
	.endef
	.section	.text,"xr",one_only,_ZN4core3ptr46drop_in_place$LT$alloc..vec..Vec$LT$u8$GT$$GT$17hd091368308cb588bE
	.p2align	4, 0x90
_ZN4core3ptr46drop_in_place$LT$alloc..vec..Vec$LT$u8$GT$$GT$17hd091368308cb588bE:
.Lfunc_begin6:
.seh_proc _ZN4core3ptr46drop_in_place$LT$alloc..vec..Vec$LT$u8$GT$$GT$17hd091368308cb588bE
	.seh_handler __CxxFrameHandler3, @unwind, @except
	pushq	%rbp
	.seh_pushreg %rbp
	subq	$48, %rsp
	.seh_stackalloc 48
	leaq	48(%rsp), %rbp
	.seh_setframe %rbp, 48
	.seh_endprologue
	movq	$-2, -8(%rbp)
	movq	%rcx, -16(%rbp)
.Ltmp18:
	callq	_ZN70_$LT$alloc..vec..Vec$LT$T$C$A$GT$$u20$as$u20$core..ops..drop..Drop$GT$4drop17he458901a7b0c1aacE
.Ltmp19:
	jmp	.LBB32_2
.LBB32_2:
	movq	-16(%rbp), %rcx
	callq	_ZN4core3ptr53drop_in_place$LT$alloc..raw_vec..RawVec$LT$u8$GT$$GT$17h2505d0df8f9db1c2E
	nop
	addq	$48, %rsp
	popq	%rbp
	retq
	.seh_handlerdata
	.long	($cppxdata$_ZN4core3ptr46drop_in_place$LT$alloc..vec..Vec$LT$u8$GT$$GT$17hd091368308cb588bE)@IMGREL
	.section	.text,"xr",one_only,_ZN4core3ptr46drop_in_place$LT$alloc..vec..Vec$LT$u8$GT$$GT$17hd091368308cb588bE
	.seh_endproc
	.def	"?dtor$1@?0?_ZN4core3ptr46drop_in_place$LT$alloc..vec..Vec$LT$u8$GT$$GT$17hd091368308cb588bE@4HA";
	.scl	3;
	.type	32;
	.endef
	.p2align	4, 0x90
"?dtor$1@?0?_ZN4core3ptr46drop_in_place$LT$alloc..vec..Vec$LT$u8$GT$$GT$17hd091368308cb588bE@4HA":
.seh_proc "?dtor$1@?0?_ZN4core3ptr46drop_in_place$LT$alloc..vec..Vec$LT$u8$GT$$GT$17hd091368308cb588bE@4HA"
.LBB32_1:
	movq	%rdx, 16(%rsp)
	pushq	%rbp
	.seh_pushreg %rbp
	subq	$32, %rsp
	.seh_stackalloc 32
	leaq	48(%rdx), %rbp
	.seh_endprologue
	movq	-16(%rbp), %rcx
	callq	_ZN4core3ptr53drop_in_place$LT$alloc..raw_vec..RawVec$LT$u8$GT$$GT$17h2505d0df8f9db1c2E
	nop
	addq	$32, %rsp
	popq	%rbp
	retq
.Lfunc_end6:
	.seh_handlerdata
	.section	.text,"xr",one_only,_ZN4core3ptr46drop_in_place$LT$alloc..vec..Vec$LT$u8$GT$$GT$17hd091368308cb588bE
	.seh_endproc
	.section	.xdata,"dr",associative,_ZN4core3ptr46drop_in_place$LT$alloc..vec..Vec$LT$u8$GT$$GT$17hd091368308cb588bE
	.p2align	2, 0x0
$cppxdata$_ZN4core3ptr46drop_in_place$LT$alloc..vec..Vec$LT$u8$GT$$GT$17hd091368308cb588bE:
	.long	429065506
	.long	1
	.long	($stateUnwindMap$_ZN4core3ptr46drop_in_place$LT$alloc..vec..Vec$LT$u8$GT$$GT$17hd091368308cb588bE)@IMGREL
	.long	0
	.long	0
	.long	3
	.long	($ip2state$_ZN4core3ptr46drop_in_place$LT$alloc..vec..Vec$LT$u8$GT$$GT$17hd091368308cb588bE)@IMGREL
	.long	40
	.long	0
	.long	1
$stateUnwindMap$_ZN4core3ptr46drop_in_place$LT$alloc..vec..Vec$LT$u8$GT$$GT$17hd091368308cb588bE:
	.long	-1
	.long	"?dtor$1@?0?_ZN4core3ptr46drop_in_place$LT$alloc..vec..Vec$LT$u8$GT$$GT$17hd091368308cb588bE@4HA"@IMGREL
$ip2state$_ZN4core3ptr46drop_in_place$LT$alloc..vec..Vec$LT$u8$GT$$GT$17hd091368308cb588bE:
	.long	.Lfunc_begin6@IMGREL
	.long	-1
	.long	.Ltmp18@IMGREL+1
	.long	0
	.long	.Ltmp19@IMGREL+1
	.long	-1
	.section	.text,"xr",one_only,_ZN4core3ptr46drop_in_place$LT$alloc..vec..Vec$LT$u8$GT$$GT$17hd091368308cb588bE

	.def	_ZN4core3ptr53drop_in_place$LT$alloc..raw_vec..RawVec$LT$u8$GT$$GT$17h2505d0df8f9db1c2E;
	.scl	3;
	.type	32;
	.endef
	.section	.text,"xr",one_only,_ZN4core3ptr53drop_in_place$LT$alloc..raw_vec..RawVec$LT$u8$GT$$GT$17h2505d0df8f9db1c2E
	.p2align	4, 0x90
_ZN4core3ptr53drop_in_place$LT$alloc..raw_vec..RawVec$LT$u8$GT$$GT$17h2505d0df8f9db1c2E:
.seh_proc _ZN4core3ptr53drop_in_place$LT$alloc..raw_vec..RawVec$LT$u8$GT$$GT$17h2505d0df8f9db1c2E
	subq	$40, %rsp
	.seh_stackalloc 40
	.seh_endprologue
	callq	_ZN77_$LT$alloc..raw_vec..RawVec$LT$T$C$A$GT$$u20$as$u20$core..ops..drop..Drop$GT$4drop17h0e6addb9831d02d0E
	nop
	addq	$40, %rsp
	retq
	.seh_endproc

	.def	_ZN4core3ptr57drop_in_place$LT$std..io..error..repr_bitpacked..Repr$GT$17hc89aa8ff29fe16c1E;
	.scl	3;
	.type	32;
	.endef
	.section	.text,"xr",one_only,_ZN4core3ptr57drop_in_place$LT$std..io..error..repr_bitpacked..Repr$GT$17hc89aa8ff29fe16c1E
	.p2align	4, 0x90
_ZN4core3ptr57drop_in_place$LT$std..io..error..repr_bitpacked..Repr$GT$17hc89aa8ff29fe16c1E:
.seh_proc _ZN4core3ptr57drop_in_place$LT$std..io..error..repr_bitpacked..Repr$GT$17hc89aa8ff29fe16c1E
	subq	$40, %rsp
	.seh_stackalloc 40
	.seh_endprologue
	callq	_ZN78_$LT$std..io..error..repr_bitpacked..Repr$u20$as$u20$core..ops..drop..Drop$GT$4drop17hc0d745cd94da2c43E
	nop
	addq	$40, %rsp
	retq
	.seh_endproc

	.def	_ZN4core3ptr68drop_in_place$LT$alloc..boxed..Box$LT$std..io..error..Custom$GT$$GT$17he7790d34edc8ed93E;
	.scl	3;
	.type	32;
	.endef
	.section	.text,"xr",one_only,_ZN4core3ptr68drop_in_place$LT$alloc..boxed..Box$LT$std..io..error..Custom$GT$$GT$17he7790d34edc8ed93E
	.p2align	4, 0x90
_ZN4core3ptr68drop_in_place$LT$alloc..boxed..Box$LT$std..io..error..Custom$GT$$GT$17he7790d34edc8ed93E:
.Lfunc_begin7:
.seh_proc _ZN4core3ptr68drop_in_place$LT$alloc..boxed..Box$LT$std..io..error..Custom$GT$$GT$17he7790d34edc8ed93E
	.seh_handler __CxxFrameHandler3, @unwind, @except
	pushq	%rbp
	.seh_pushreg %rbp
	subq	$48, %rsp
	.seh_stackalloc 48
	leaq	48(%rsp), %rbp
	.seh_setframe %rbp, 48
	.seh_endprologue
	movq	$-2, -8(%rbp)
	movq	%rcx, -16(%rbp)
	movq	(%rcx), %rcx
.Ltmp20:
	callq	_ZN4core3ptr43drop_in_place$LT$std..io..error..Custom$GT$17h0a7d79890875bc8aE
.Ltmp21:
	jmp	.LBB35_2
.LBB35_2:
	movq	-16(%rbp), %rcx
	callq	_ZN72_$LT$alloc..boxed..Box$LT$T$C$A$GT$$u20$as$u20$core..ops..drop..Drop$GT$4drop17h61ca0155059b5ef0E
	nop
	addq	$48, %rsp
	popq	%rbp
	retq
	.seh_handlerdata
	.long	($cppxdata$_ZN4core3ptr68drop_in_place$LT$alloc..boxed..Box$LT$std..io..error..Custom$GT$$GT$17he7790d34edc8ed93E)@IMGREL
	.section	.text,"xr",one_only,_ZN4core3ptr68drop_in_place$LT$alloc..boxed..Box$LT$std..io..error..Custom$GT$$GT$17he7790d34edc8ed93E
	.seh_endproc
	.def	"?dtor$1@?0?_ZN4core3ptr68drop_in_place$LT$alloc..boxed..Box$LT$std..io..error..Custom$GT$$GT$17he7790d34edc8ed93E@4HA";
	.scl	3;
	.type	32;
	.endef
	.p2align	4, 0x90
"?dtor$1@?0?_ZN4core3ptr68drop_in_place$LT$alloc..boxed..Box$LT$std..io..error..Custom$GT$$GT$17he7790d34edc8ed93E@4HA":
.seh_proc "?dtor$1@?0?_ZN4core3ptr68drop_in_place$LT$alloc..boxed..Box$LT$std..io..error..Custom$GT$$GT$17he7790d34edc8ed93E@4HA"
.LBB35_1:
	movq	%rdx, 16(%rsp)
	pushq	%rbp
	.seh_pushreg %rbp
	subq	$32, %rsp
	.seh_stackalloc 32
	leaq	48(%rdx), %rbp
	.seh_endprologue
	movq	-16(%rbp), %rcx
	callq	_ZN72_$LT$alloc..boxed..Box$LT$T$C$A$GT$$u20$as$u20$core..ops..drop..Drop$GT$4drop17h61ca0155059b5ef0E
	nop
	addq	$32, %rsp
	popq	%rbp
	retq
.Lfunc_end7:
	.seh_handlerdata
	.section	.text,"xr",one_only,_ZN4core3ptr68drop_in_place$LT$alloc..boxed..Box$LT$std..io..error..Custom$GT$$GT$17he7790d34edc8ed93E
	.seh_endproc
	.section	.xdata,"dr",associative,_ZN4core3ptr68drop_in_place$LT$alloc..boxed..Box$LT$std..io..error..Custom$GT$$GT$17he7790d34edc8ed93E
	.p2align	2, 0x0
$cppxdata$_ZN4core3ptr68drop_in_place$LT$alloc..boxed..Box$LT$std..io..error..Custom$GT$$GT$17he7790d34edc8ed93E:
	.long	429065506
	.long	1
	.long	($stateUnwindMap$_ZN4core3ptr68drop_in_place$LT$alloc..boxed..Box$LT$std..io..error..Custom$GT$$GT$17he7790d34edc8ed93E)@IMGREL
	.long	0
	.long	0
	.long	3
	.long	($ip2state$_ZN4core3ptr68drop_in_place$LT$alloc..boxed..Box$LT$std..io..error..Custom$GT$$GT$17he7790d34edc8ed93E)@IMGREL
	.long	40
	.long	0
	.long	1
$stateUnwindMap$_ZN4core3ptr68drop_in_place$LT$alloc..boxed..Box$LT$std..io..error..Custom$GT$$GT$17he7790d34edc8ed93E:
	.long	-1
	.long	"?dtor$1@?0?_ZN4core3ptr68drop_in_place$LT$alloc..boxed..Box$LT$std..io..error..Custom$GT$$GT$17he7790d34edc8ed93E@4HA"@IMGREL
$ip2state$_ZN4core3ptr68drop_in_place$LT$alloc..boxed..Box$LT$std..io..error..Custom$GT$$GT$17he7790d34edc8ed93E:
	.long	.Lfunc_begin7@IMGREL
	.long	-1
	.long	.Ltmp20@IMGREL+1
	.long	0
	.long	.Ltmp21@IMGREL+1
	.long	-1
	.section	.text,"xr",one_only,_ZN4core3ptr68drop_in_place$LT$alloc..boxed..Box$LT$std..io..error..Custom$GT$$GT$17he7790d34edc8ed93E

	.def	_ZN4core3ptr85drop_in_place$LT$std..rt..lang_start$LT$$LP$$RP$$GT$..$u7b$$u7b$closure$u7d$$u7d$$GT$17he982f743b35cb6cdE;
	.scl	3;
	.type	32;
	.endef
	.section	.text,"xr",one_only,_ZN4core3ptr85drop_in_place$LT$std..rt..lang_start$LT$$LP$$RP$$GT$..$u7b$$u7b$closure$u7d$$u7d$$GT$17he982f743b35cb6cdE
	.p2align	4, 0x90
_ZN4core3ptr85drop_in_place$LT$std..rt..lang_start$LT$$LP$$RP$$GT$..$u7b$$u7b$closure$u7d$$u7d$$GT$17he982f743b35cb6cdE:
	retq

	.def	_ZN4core3ptr8non_null16NonNull$LT$T$GT$13new_unchecked18precondition_check17hac57592cae96c899E;
	.scl	3;
	.type	32;
	.endef
	.section	.text,"xr",one_only,_ZN4core3ptr8non_null16NonNull$LT$T$GT$13new_unchecked18precondition_check17hac57592cae96c899E
	.p2align	4, 0x90
_ZN4core3ptr8non_null16NonNull$LT$T$GT$13new_unchecked18precondition_check17hac57592cae96c899E:
.seh_proc _ZN4core3ptr8non_null16NonNull$LT$T$GT$13new_unchecked18precondition_check17hac57592cae96c899E
	subq	$40, %rsp
	.seh_stackalloc 40
	.seh_endprologue
	cmpq	$0, %rcx
	jne	.LBB37_2
	leaq	__unnamed_9(%rip), %rcx
	movl	$93, %edx
	callq	_ZN4core9panicking14panic_nounwind17h7093548e2b172a67E
.LBB37_2:
	nop
	addq	$40, %rsp
	retq
	.seh_endproc

	.def	_ZN4core3ptr93drop_in_place$LT$dyn$u20$core..error..Error$u2b$core..marker..Sync$u2b$core..marker..Send$GT$17h404e110e23b2b4d0E;
	.scl	3;
	.type	32;
	.endef
	.section	.text,"xr",one_only,_ZN4core3ptr93drop_in_place$LT$dyn$u20$core..error..Error$u2b$core..marker..Sync$u2b$core..marker..Send$GT$17h404e110e23b2b4d0E
	.p2align	4, 0x90
_ZN4core3ptr93drop_in_place$LT$dyn$u20$core..error..Error$u2b$core..marker..Sync$u2b$core..marker..Send$GT$17h404e110e23b2b4d0E:
.seh_proc _ZN4core3ptr93drop_in_place$LT$dyn$u20$core..error..Error$u2b$core..marker..Sync$u2b$core..marker..Send$GT$17h404e110e23b2b4d0E
	subq	$56, %rsp
	.seh_stackalloc 56
	.seh_endprologue
	movq	%rcx, 40(%rsp)
	movq	(%rdx), %rax
	movq	%rax, 48(%rsp)
	cmpq	$0, %rax
	je	.LBB38_2
	movq	48(%rsp), %rax
	movq	40(%rsp), %rcx
	callq	*%rax
.LBB38_2:
	nop
	addq	$56, %rsp
	retq
	.seh_endproc

	.def	_ZN4core3str11validations15next_code_point17h8c11de47996a23bfE;
	.scl	3;
	.type	32;
	.endef
	.section	.text,"xr",one_only,_ZN4core3str11validations15next_code_point17h8c11de47996a23bfE
	.p2align	4, 0x90
_ZN4core3str11validations15next_code_point17h8c11de47996a23bfE:
.seh_proc _ZN4core3str11validations15next_code_point17h8c11de47996a23bfE
	subq	$120, %rsp
	.seh_stackalloc 120
	.seh_endprologue
	movq	%rcx, 56(%rsp)
	callq	_ZN91_$LT$core..slice..iter..Iter$LT$T$GT$$u20$as$u20$core..iter..traits..iterator..Iterator$GT$4next17h146495f6670ebe93E
	movq	%rax, 80(%rsp)
	movq	80(%rsp), %rdx
	movl	$1, %eax
	xorl	%ecx, %ecx
	cmpq	$0, %rdx
	cmoveq	%rcx, %rax
	cmpq	$0, %rax
	jne	.LBB39_2
	movl	__unnamed_10(%rip), %ecx
	movl	__unnamed_10+4(%rip), %eax
	movl	%ecx, 64(%rsp)
	movl	%eax, 68(%rsp)
	jmp	.LBB39_3
.LBB39_2:
	movq	80(%rsp), %rax
	movq	%rax, 72(%rsp)
	movq	72(%rsp), %rax
	movb	(%rax), %al
	movb	%al, 55(%rsp)
	cmpb	$-128, %al
	jb	.LBB39_5
	jmp	.LBB39_4
.LBB39_3:
	movl	64(%rsp), %eax
	movl	68(%rsp), %edx
	addq	$120, %rsp
	retq
.LBB39_4:
	movq	56(%rsp), %rcx
	movb	55(%rsp), %al
	andb	$31, %al
	movzbl	%al, %eax
	movl	%eax, 48(%rsp)
	callq	_ZN91_$LT$core..slice..iter..Iter$LT$T$GT$$u20$as$u20$core..iter..traits..iterator..Iterator$GT$4next17h146495f6670ebe93E
	movq	%rax, 88(%rsp)
	movq	88(%rsp), %rdx
	movl	$1, %eax
	xorl	%ecx, %ecx
	cmpq	$0, %rdx
	cmoveq	%rcx, %rax
	cmpq	$0, %rax
	je	.LBB39_6
	jmp	.LBB39_7
.LBB39_5:
	movb	55(%rsp), %al
	movzbl	%al, %eax
	movl	%eax, 68(%rsp)
	movl	$1, 64(%rsp)
	jmp	.LBB39_3
.LBB39_6:
	callq	_ZN4core4hint21unreachable_unchecked18precondition_check17hf8788716f3e14b08E
	jmp	.LBB39_8
.LBB39_7:
	movb	55(%rsp), %al
	movl	48(%rsp), %ecx
	movq	88(%rsp), %rdx
	movb	(%rdx), %dl
	shll	$6, %ecx
	andb	$63, %dl
	movzbl	%dl, %edx
	movl	%edx, 44(%rsp)
	orl	%edx, %ecx
	movl	%ecx, 100(%rsp)
	cmpb	$-32, %al
	jae	.LBB39_10
	jmp	.LBB39_9
.LBB39_8:
	ud2
.LBB39_9:
	movl	100(%rsp), %eax
	movl	%eax, 68(%rsp)
	movl	$1, 64(%rsp)
	jmp	.LBB39_3
.LBB39_10:
	movq	56(%rsp), %rcx
	callq	_ZN91_$LT$core..slice..iter..Iter$LT$T$GT$$u20$as$u20$core..iter..traits..iterator..Iterator$GT$4next17h146495f6670ebe93E
	movq	%rax, 104(%rsp)
	movq	104(%rsp), %rdx
	movl	$1, %eax
	xorl	%ecx, %ecx
	cmpq	$0, %rdx
	cmoveq	%rcx, %rax
	cmpq	$0, %rax
	jne	.LBB39_12
	callq	_ZN4core4hint21unreachable_unchecked18precondition_check17hf8788716f3e14b08E
	jmp	.LBB39_8
.LBB39_12:
	movb	55(%rsp), %al
	movl	48(%rsp), %ecx
	movl	44(%rsp), %edx
	movq	104(%rsp), %r8
	movb	(%r8), %r8b
	shll	$6, %edx
	andb	$63, %r8b
	movzbl	%r8b, %r8d
	orl	%r8d, %edx
	movl	%edx, 40(%rsp)
	shll	$12, %ecx
	orl	%edx, %ecx
	movl	%ecx, 100(%rsp)
	cmpb	$-16, %al
	jae	.LBB39_14
.LBB39_13:
	jmp	.LBB39_9
.LBB39_14:
	movq	56(%rsp), %rcx
	callq	_ZN91_$LT$core..slice..iter..Iter$LT$T$GT$$u20$as$u20$core..iter..traits..iterator..Iterator$GT$4next17h146495f6670ebe93E
	movq	%rax, 112(%rsp)
	movq	112(%rsp), %rdx
	movl	$1, %eax
	xorl	%ecx, %ecx
	cmpq	$0, %rdx
	cmoveq	%rcx, %rax
	cmpq	$0, %rax
	jne	.LBB39_16
	callq	_ZN4core4hint21unreachable_unchecked18precondition_check17hf8788716f3e14b08E
	jmp	.LBB39_8
.LBB39_16:
	movl	40(%rsp), %ecx
	movl	48(%rsp), %eax
	movq	112(%rsp), %rdx
	movb	(%rdx), %dl
	andl	$7, %eax
	shll	$18, %eax
	shll	$6, %ecx
	andb	$63, %dl
	movzbl	%dl, %edx
	orl	%edx, %ecx
	orl	%ecx, %eax
	movl	%eax, 100(%rsp)
	jmp	.LBB39_13
	.seh_endproc

	.def	_ZN4core3str21_$LT$impl$u20$str$GT$5split17h4346e039f1a32d1cE;
	.scl	3;
	.type	32;
	.endef
	.section	.text,"xr",one_only,_ZN4core3str21_$LT$impl$u20$str$GT$5split17h4346e039f1a32d1cE
	.p2align	4, 0x90
_ZN4core3str21_$LT$impl$u20$str$GT$5split17h4346e039f1a32d1cE:
.seh_proc _ZN4core3str21_$LT$impl$u20$str$GT$5split17h4346e039f1a32d1cE
	subq	$312, %rsp
	.seh_stackalloc 312
	.seh_endprologue
	movq	%r9, 48(%rsp)
	movq	%r8, %rax
	movq	%rax, 56(%rsp)
	movq	%rdx, %r9
	movq	48(%rsp), %rdx
	movq	%rcx, 64(%rsp)
	movq	%rcx, 72(%rsp)
	movq	352(%rsp), %r8
	leaq	208(%rsp), %rcx
	movq	%rax, 32(%rsp)
	callq	_ZN55_$LT$$RF$str$u20$as$u20$core..str..pattern..Pattern$GT$13into_searcher17h2ec266cfe668f199E
	movq	56(%rsp), %r8
	movq	$0, 184(%rsp)
	movq	%r8, 192(%rsp)
	leaq	80(%rsp), %rcx
	leaq	208(%rsp), %rdx
	movl	$104, %r8d
	callq	memcpy
	movq	64(%rsp), %rcx
	movb	$1, 200(%rsp)
	movb	$0, 201(%rsp)
	leaq	80(%rsp), %rdx
	movl	$128, %r8d
	callq	memcpy
	movq	72(%rsp), %rax
	addq	$312, %rsp
	retq
	.seh_endproc

	.def	_ZN4core3str4iter22SplitInternal$LT$P$GT$4next17he1a2dba093e713efE;
	.scl	3;
	.type	32;
	.endef
	.section	.text,"xr",one_only,_ZN4core3str4iter22SplitInternal$LT$P$GT$4next17he1a2dba093e713efE
	.p2align	4, 0x90
_ZN4core3str4iter22SplitInternal$LT$P$GT$4next17he1a2dba093e713efE:
.seh_proc _ZN4core3str4iter22SplitInternal$LT$P$GT$4next17he1a2dba093e713efE
	subq	$120, %rsp
	.seh_stackalloc 120
	.seh_endprologue
	movq	%rcx, 72(%rsp)
	testb	$1, 121(%rcx)
	jne	.LBB41_2
	movq	72(%rsp), %rcx
	callq	_ZN80_$LT$core..str..pattern..StrSearcher$u20$as$u20$core..str..pattern..Searcher$GT$8haystack17ha915661fcf93cca3E
	movq	%rax, 56(%rsp)
	movq	%rdx, %rax
	movq	72(%rsp), %rdx
	movq	%rax, 64(%rsp)
	leaq	96(%rsp), %rcx
	callq	_ZN80_$LT$core..str..pattern..StrSearcher$u20$as$u20$core..str..pattern..Searcher$GT$10next_match17he84aea9018330153E
	cmpq	$0, 96(%rsp)
	je	.LBB41_3
	jmp	.LBB41_4
.LBB41_2:
	movq	__unnamed_5(%rip), %rcx
	movq	__unnamed_5+8(%rip), %rax
	movq	%rcx, 80(%rsp)
	movq	%rax, 88(%rsp)
	jmp	.LBB41_8
.LBB41_3:
	movq	72(%rsp), %rcx
	callq	_ZN4core3str4iter22SplitInternal$LT$P$GT$7get_end17h92eb11a5f3a75267E
	movq	%rax, 80(%rsp)
	movq	%rdx, 88(%rsp)
	jmp	.LBB41_5
.LBB41_4:
	movq	72(%rsp), %rax
	movq	104(%rsp), %rcx
	movq	%rcx, 32(%rsp)
	movq	112(%rsp), %rcx
	movq	%rcx, 40(%rsp)
	movq	104(%rax), %rax
	movq	%rax, 48(%rsp)
	jmp	.LBB41_6
.LBB41_5:
	jmp	.LBB41_8
.LBB41_6:
	movq	64(%rsp), %r8
	movq	32(%rsp), %rdx
	movq	48(%rsp), %rcx
	callq	_ZN4core3str6traits108_$LT$impl$u20$core..slice..index..SliceIndex$LT$str$GT$$u20$for$u20$core..ops..range..Range$LT$usize$GT$$GT$13get_unchecked18precondition_check17h0d8c2ac7f26b29caE
	movq	72(%rsp), %rdx
	movq	40(%rsp), %r8
	movq	48(%rsp), %r9
	movq	56(%rsp), %rcx
	movq	32(%rsp), %rax
	subq	%r9, %rax
	addq	%r9, %rcx
	movq	%r8, 104(%rdx)
	movq	%rcx, 80(%rsp)
	movq	%rax, 88(%rsp)
	jmp	.LBB41_5
.LBB41_8:
	movq	80(%rsp), %rax
	movq	88(%rsp), %rdx
	addq	$120, %rsp
	retq
	.seh_endproc

	.def	_ZN4core3str4iter22SplitInternal$LT$P$GT$7get_end17h92eb11a5f3a75267E;
	.scl	3;
	.type	32;
	.endef
	.section	.text,"xr",one_only,_ZN4core3str4iter22SplitInternal$LT$P$GT$7get_end17h92eb11a5f3a75267E
	.p2align	4, 0x90
_ZN4core3str4iter22SplitInternal$LT$P$GT$7get_end17h92eb11a5f3a75267E:
.seh_proc _ZN4core3str4iter22SplitInternal$LT$P$GT$7get_end17h92eb11a5f3a75267E
	subq	$88, %rsp
	.seh_stackalloc 88
	.seh_endprologue
	movq	%rcx, 64(%rsp)
	testb	$1, 121(%rcx)
	jne	.LBB42_2
	movq	64(%rsp), %rax
	movb	$1, 121(%rax)
	testb	$1, 120(%rax)
	jne	.LBB42_4
	jmp	.LBB42_3
.LBB42_2:
	movq	__unnamed_5(%rip), %rcx
	movq	__unnamed_5+8(%rip), %rax
	movq	%rcx, 72(%rsp)
	movq	%rax, 80(%rsp)
	jmp	.LBB42_9
.LBB42_3:
	movq	64(%rsp), %rcx
	movq	112(%rcx), %rax
	subq	104(%rcx), %rax
	cmpq	$0, %rax
	ja	.LBB42_6
	jmp	.LBB42_5
.LBB42_4:
	movq	64(%rsp), %rcx
	callq	_ZN80_$LT$core..str..pattern..StrSearcher$u20$as$u20$core..str..pattern..Searcher$GT$8haystack17ha915661fcf93cca3E
	movq	%rax, %rcx
	movq	64(%rsp), %rax
	movq	%rcx, 32(%rsp)
	movq	%rdx, 40(%rsp)
	movq	104(%rax), %rcx
	movq	%rcx, 48(%rsp)
	movq	112(%rax), %rax
	movq	%rax, 56(%rsp)
	jmp	.LBB42_7
.LBB42_5:
	jmp	.LBB42_2
.LBB42_6:
	jmp	.LBB42_4
.LBB42_7:
	movq	40(%rsp), %r8
	movq	56(%rsp), %rdx
	movq	48(%rsp), %rcx
	callq	_ZN4core3str6traits108_$LT$impl$u20$core..slice..index..SliceIndex$LT$str$GT$$u20$for$u20$core..ops..range..Range$LT$usize$GT$$GT$13get_unchecked18precondition_check17h0d8c2ac7f26b29caE
	movq	48(%rsp), %rdx
	movq	32(%rsp), %rcx
	movq	56(%rsp), %rax
	subq	%rdx, %rax
	addq	%rdx, %rcx
	movq	%rcx, 72(%rsp)
	movq	%rax, 80(%rsp)
.LBB42_9:
	movq	72(%rsp), %rax
	movq	80(%rsp), %rdx
	addq	$88, %rsp
	retq
	.seh_endproc

	.def	_ZN4core3str6traits108_$LT$impl$u20$core..slice..index..SliceIndex$LT$str$GT$$u20$for$u20$core..ops..range..Range$LT$usize$GT$$GT$13get_unchecked18precondition_check17h0d8c2ac7f26b29caE;
	.scl	3;
	.type	32;
	.endef
	.section	.text,"xr",one_only,_ZN4core3str6traits108_$LT$impl$u20$core..slice..index..SliceIndex$LT$str$GT$$u20$for$u20$core..ops..range..Range$LT$usize$GT$$GT$13get_unchecked18precondition_check17h0d8c2ac7f26b29caE
	.p2align	4, 0x90
_ZN4core3str6traits108_$LT$impl$u20$core..slice..index..SliceIndex$LT$str$GT$$u20$for$u20$core..ops..range..Range$LT$usize$GT$$GT$13get_unchecked18precondition_check17h0d8c2ac7f26b29caE:
.seh_proc _ZN4core3str6traits108_$LT$impl$u20$core..slice..index..SliceIndex$LT$str$GT$$u20$for$u20$core..ops..range..Range$LT$usize$GT$$GT$13get_unchecked18precondition_check17h0d8c2ac7f26b29caE
	subq	$56, %rsp
	.seh_stackalloc 56
	.seh_endprologue
	movq	%r8, 40(%rsp)
	movq	%rdx, 48(%rsp)
	cmpq	%rcx, %rdx
	jae	.LBB43_2
.LBB43_1:
	leaq	__unnamed_11(%rip), %rcx
	movl	$102, %edx
	callq	_ZN4core9panicking14panic_nounwind17h7093548e2b172a67E
.LBB43_2:
	movq	48(%rsp), %rax
	movq	40(%rsp), %rcx
	cmpq	%rcx, %rax
	ja	.LBB43_1
	addq	$56, %rsp
	retq
	.seh_endproc

	.def	_ZN4core3str6traits112_$LT$impl$u20$core..slice..index..SliceIndex$LT$str$GT$$u20$for$u20$core..ops..range..RangeFrom$LT$usize$GT$$GT$3get17h15271a3941f7002dE;
	.scl	3;
	.type	32;
	.endef
	.section	.text,"xr",one_only,_ZN4core3str6traits112_$LT$impl$u20$core..slice..index..SliceIndex$LT$str$GT$$u20$for$u20$core..ops..range..RangeFrom$LT$usize$GT$$GT$3get17h15271a3941f7002dE
	.p2align	4, 0x90
_ZN4core3str6traits112_$LT$impl$u20$core..slice..index..SliceIndex$LT$str$GT$$u20$for$u20$core..ops..range..RangeFrom$LT$usize$GT$$GT$3get17h15271a3941f7002dE:
.seh_proc _ZN4core3str6traits112_$LT$impl$u20$core..slice..index..SliceIndex$LT$str$GT$$u20$for$u20$core..ops..range..RangeFrom$LT$usize$GT$$GT$3get17h15271a3941f7002dE
	subq	$88, %rsp
	.seh_stackalloc 88
	.seh_endprologue
	movq	%r8, 40(%rsp)
	movq	%rdx, 48(%rsp)
	movq	%rcx, 56(%rsp)
	cmpq	$0, %rcx
	jne	.LBB44_2
	jmp	.LBB44_3
.LBB44_2:
	movq	56(%rsp), %rax
	movq	40(%rsp), %rcx
	cmpq	%rcx, %rax
	jb	.LBB44_5
	jmp	.LBB44_4
.LBB44_3:
	jmp	.LBB44_9
.LBB44_4:
	movq	56(%rsp), %rax
	movq	40(%rsp), %rcx
	cmpq	%rcx, %rax
	sete	%al
	andb	$1, %al
	movb	%al, 87(%rsp)
	jmp	.LBB44_6
.LBB44_5:
	movq	48(%rsp), %rax
	movq	56(%rsp), %rcx
	cmpb	$-64, (%rax,%rcx)
	setge	%al
	andb	$1, %al
	movb	%al, 87(%rsp)
.LBB44_6:
	testb	$1, 87(%rsp)
	jne	.LBB44_3
	movq	__unnamed_5(%rip), %rcx
	movq	__unnamed_5+8(%rip), %rax
	movq	%rcx, 64(%rsp)
	movq	%rax, 72(%rsp)
.LBB44_8:
	movq	64(%rsp), %rax
	movq	72(%rsp), %rdx
	addq	$88, %rsp
	retq
.LBB44_9:
	movq	40(%rsp), %r8
	movq	56(%rsp), %rcx
	movq	%r8, %rdx
	callq	_ZN4core3str6traits108_$LT$impl$u20$core..slice..index..SliceIndex$LT$str$GT$$u20$for$u20$core..ops..range..Range$LT$usize$GT$$GT$13get_unchecked18precondition_check17h0d8c2ac7f26b29caE
	movq	56(%rsp), %rdx
	movq	48(%rsp), %rcx
	movq	40(%rsp), %rax
	subq	%rdx, %rax
	addq	%rdx, %rcx
	movq	%rcx, 64(%rsp)
	movq	%rax, 72(%rsp)
	jmp	.LBB44_8
	.seh_endproc

	.def	_ZN4core3str6traits54_$LT$impl$u20$core..cmp..PartialEq$u20$for$u20$str$GT$2eq17hd824c456cd23700cE;
	.scl	3;
	.type	32;
	.endef
	.section	.text,"xr",one_only,_ZN4core3str6traits54_$LT$impl$u20$core..cmp..PartialEq$u20$for$u20$str$GT$2eq17hd824c456cd23700cE
	.p2align	4, 0x90
_ZN4core3str6traits54_$LT$impl$u20$core..cmp..PartialEq$u20$for$u20$str$GT$2eq17hd824c456cd23700cE:
.seh_proc _ZN4core3str6traits54_$LT$impl$u20$core..cmp..PartialEq$u20$for$u20$str$GT$2eq17hd824c456cd23700cE
	subq	$72, %rsp
	.seh_stackalloc 72
	.seh_endprologue
	movq	%rcx, 40(%rsp)
	movq	%rdx, 48(%rsp)
	movq	%r8, 56(%rsp)
	movq	%r9, 64(%rsp)
	movq	40(%rsp), %rcx
	movq	48(%rsp), %rdx
	movq	56(%rsp), %r8
	movq	64(%rsp), %r9
	callq	_ZN73_$LT$$u5b$A$u5d$$u20$as$u20$core..slice..cmp..SlicePartialEq$LT$B$GT$$GT$5equal17he16b2c05b62ebb74E
	andb	$1, %al
	movzbl	%al, %eax
	addq	$72, %rsp
	retq
	.seh_endproc

	.def	_ZN4core3str7pattern14TwoWaySearcher4next17h5cdd046cf5e86752E;
	.scl	3;
	.type	32;
	.endef
	.section	.text,"xr",one_only,_ZN4core3str7pattern14TwoWaySearcher4next17h5cdd046cf5e86752E
	.p2align	4, 0x90
_ZN4core3str7pattern14TwoWaySearcher4next17h5cdd046cf5e86752E:
.seh_proc _ZN4core3str7pattern14TwoWaySearcher4next17h5cdd046cf5e86752E
	subq	$280, %rsp
	.seh_stackalloc 280
	.seh_endprologue
	movq	%r9, 112(%rsp)
	movq	%r8, 120(%rsp)
	movq	%rdx, 128(%rsp)
	movq	%rcx, 136(%rsp)
	movq	%rcx, 144(%rsp)
	movb	336(%rsp), %al
	movb	%al, 159(%rsp)
	movq	328(%rsp), %rax
	movq	%rax, 160(%rsp)
	movq	320(%rsp), %rcx
	movq	%rcx, 168(%rsp)
	movq	32(%rdx), %rcx
	movq	%rcx, 176(%rsp)
	subq	$1, %rax
	movq	%rax, 184(%rsp)
.LBB46_1:
	movq	112(%rsp), %rcx
	movq	128(%rsp), %rdx
	movq	184(%rsp), %rax
	addq	32(%rdx), %rax
	movq	%rax, 104(%rsp)
	cmpq	%rcx, %rax
	jb	.LBB46_3
	movq	176(%rsp), %rdx
	movq	136(%rsp), %rcx
	movq	128(%rsp), %rax
	movq	112(%rsp), %r8
	movq	%r8, 32(%rax)
	movq	32(%rax), %r8
	callq	_ZN89_$LT$core..str..pattern..RejectAndMatch$u20$as$u20$core..str..pattern..TwoWayStrategy$GT$9rejecting17ha016e090d6770bb4E
	jmp	.LBB46_4
.LBB46_3:
	movq	104(%rsp), %rcx
	movq	120(%rsp), %rax
	addq	%rcx, %rax
	movq	%rax, 192(%rsp)
	movq	192(%rsp), %rax
	movb	(%rax), %al
	movb	%al, 103(%rsp)
	callq	_ZN89_$LT$core..str..pattern..RejectAndMatch$u20$as$u20$core..str..pattern..TwoWayStrategy$GT$16use_early_reject17h9288ce0f005806a3E
	testb	$1, %al
	jne	.LBB46_6
	jmp	.LBB46_5
.LBB46_4:
	movq	144(%rsp), %rax
	addq	$280, %rsp
	retq
.LBB46_5:
	movb	103(%rsp), %cl
	movq	128(%rsp), %rax
	movq	24(%rax), %rax
	andb	$63, %cl
	movzbl	%cl, %ecx
	andq	$63, %rcx
	shrq	%cl, %rax
	andq	$1, %rax
	cmpq	$0, %rax
	je	.LBB46_9
	jmp	.LBB46_10
.LBB46_6:
	movq	176(%rsp), %rax
	movq	128(%rsp), %rcx
	cmpq	32(%rcx), %rax
	jne	.LBB46_8
	jmp	.LBB46_5
.LBB46_8:
	movq	176(%rsp), %rdx
	movq	136(%rsp), %rcx
	movq	128(%rsp), %rax
	movq	32(%rax), %r8
	callq	_ZN89_$LT$core..str..pattern..RejectAndMatch$u20$as$u20$core..str..pattern..TwoWayStrategy$GT$9rejecting17ha016e090d6770bb4E
	jmp	.LBB46_4
.LBB46_9:
	movb	159(%rsp), %al
	movq	128(%rsp), %rcx
	movq	160(%rsp), %rdx
	addq	32(%rcx), %rdx
	movq	%rdx, 32(%rcx)
	testb	$1, %al
	jne	.LBB46_12
	jmp	.LBB46_11
.LBB46_10:
	movb	159(%rsp), %al
	testb	$1, %al
	jne	.LBB46_15
	jmp	.LBB46_14
.LBB46_11:
	movq	128(%rsp), %rax
	movq	$0, 48(%rax)
.LBB46_12:
	jmp	.LBB46_13
.LBB46_13:
	jmp	.LBB46_1
.LBB46_14:
	movq	128(%rsp), %rax
	movq	(%rax), %rcx
	movq	48(%rax), %rdx
	callq	_ZN4core3cmp6max_by17h5eb3d25a27e456a3E
	movq	%rax, 200(%rsp)
	jmp	.LBB46_16
.LBB46_15:
	movq	128(%rsp), %rax
	movq	(%rax), %rax
	movq	%rax, 200(%rsp)
.LBB46_16:
	movq	160(%rsp), %rax
	movq	200(%rsp), %rcx
	movq	%rcx, 208(%rsp)
	movq	%rax, 216(%rsp)
.LBB46_17:
	movq	208(%rsp), %rax
	cmpq	216(%rsp), %rax
	jb	.LBB46_19
	movb	159(%rsp), %al
	testb	$1, %al
	jne	.LBB46_21
	jmp	.LBB46_20
.LBB46_19:
	movq	208(%rsp), %rcx
	movq	%rcx, 80(%rsp)
	movl	$1, %edx
	callq	_ZN49_$LT$usize$u20$as$u20$core..iter..range..Step$GT$17forward_unchecked17h08b11184554e6769E
	movq	160(%rsp), %rcx
	movq	%rax, %rdx
	movq	80(%rsp), %rax
	movq	%rdx, 208(%rsp)
	movq	%rax, 232(%rsp)
	movq	$1, 224(%rsp)
	movq	232(%rsp), %rax
	movq	%rax, 88(%rsp)
	cmpq	%rcx, %rax
	jb	.LBB46_37
	jmp	.LBB46_38
.LBB46_20:
	movq	128(%rsp), %rax
	movq	48(%rax), %rax
	movq	%rax, 240(%rsp)
	jmp	.LBB46_22
.LBB46_21:
	movq	$0, 240(%rsp)
.LBB46_22:
	movq	128(%rsp), %rax
	movq	240(%rsp), %rcx
	movq	(%rax), %rax
	movq	%rcx, 248(%rsp)
	movq	%rax, 256(%rsp)
.LBB46_23:
	movq	248(%rsp), %rax
	cmpq	256(%rsp), %rax
	jb	.LBB46_25
	movb	159(%rsp), %al
	movq	128(%rsp), %rcx
	movq	160(%rsp), %rdx
	movq	32(%rcx), %r8
	movq	%r8, 72(%rsp)
	addq	32(%rcx), %rdx
	movq	%rdx, 32(%rcx)
	testb	$1, %al
	jne	.LBB46_27
	jmp	.LBB46_26
.LBB46_25:
	movq	256(%rsp), %rcx
	movl	$1, %edx
	callq	_ZN49_$LT$usize$u20$as$u20$core..iter..range..Step$GT$18backward_unchecked17hd0c8022854f8608fE
	movq	160(%rsp), %rcx
	movq	%rax, 256(%rsp)
	movq	256(%rsp), %rax
	movq	%rax, 272(%rsp)
	movq	$1, 264(%rsp)
	movq	272(%rsp), %rax
	movq	%rax, 64(%rsp)
	cmpq	%rcx, %rax
	jb	.LBB46_28
	jmp	.LBB46_29
.LBB46_26:
	movq	128(%rsp), %rax
	movq	$0, 48(%rax)
.LBB46_27:
	movq	72(%rsp), %rdx
	movq	136(%rsp), %rcx
	movq	160(%rsp), %rax
	movq	%rdx, %r8
	addq	%rax, %r8
	callq	_ZN89_$LT$core..str..pattern..RejectAndMatch$u20$as$u20$core..str..pattern..TwoWayStrategy$GT$8matching17hb39184fde8e7f861E
	jmp	.LBB46_4
.LBB46_28:
	movq	112(%rsp), %rcx
	movq	128(%rsp), %rdx
	movq	64(%rsp), %rax
	movq	168(%rsp), %r8
	movb	(%r8,%rax), %r8b
	movb	%r8b, 55(%rsp)
	addq	32(%rdx), %rax
	movq	%rax, 56(%rsp)
	cmpq	%rcx, %rax
	jb	.LBB46_30
	jmp	.LBB46_31
.LBB46_29:
	movq	160(%rsp), %rdx
	movq	64(%rsp), %rcx
	leaq	__unnamed_12(%rip), %r8
	callq	_ZN4core9panicking18panic_bounds_check17h10ecf9c8d50868d4E
.LBB46_30:
	movb	55(%rsp), %al
	movq	120(%rsp), %rcx
	movq	56(%rsp), %rdx
	cmpb	(%rcx,%rdx), %al
	jne	.LBB46_33
	jmp	.LBB46_32
.LBB46_31:
	movq	112(%rsp), %rdx
	movq	56(%rsp), %rcx
	leaq	__unnamed_13(%rip), %r8
	callq	_ZN4core9panicking18panic_bounds_check17h10ecf9c8d50868d4E
.LBB46_32:
	jmp	.LBB46_23
.LBB46_33:
	movb	159(%rsp), %al
	movq	128(%rsp), %rcx
	movq	16(%rcx), %rdx
	addq	32(%rcx), %rdx
	movq	%rdx, 32(%rcx)
	testb	$1, %al
	jne	.LBB46_35
	movq	128(%rsp), %rax
	movq	160(%rsp), %rcx
	subq	16(%rax), %rcx
	movq	%rcx, 48(%rax)
.LBB46_35:
	jmp	.LBB46_36
.LBB46_36:
	jmp	.LBB46_13
.LBB46_37:
	movq	112(%rsp), %rcx
	movq	128(%rsp), %rdx
	movq	88(%rsp), %rax
	movq	168(%rsp), %r8
	movb	(%r8,%rax), %r8b
	movb	%r8b, 39(%rsp)
	addq	32(%rdx), %rax
	movq	%rax, 40(%rsp)
	cmpq	%rcx, %rax
	jb	.LBB46_39
	jmp	.LBB46_40
.LBB46_38:
	movq	160(%rsp), %rdx
	movq	88(%rsp), %rcx
	leaq	__unnamed_14(%rip), %r8
	callq	_ZN4core9panicking18panic_bounds_check17h10ecf9c8d50868d4E
.LBB46_39:
	movb	39(%rsp), %al
	movq	120(%rsp), %rcx
	movq	40(%rsp), %rdx
	cmpb	(%rcx,%rdx), %al
	jne	.LBB46_42
	jmp	.LBB46_41
.LBB46_40:
	movq	112(%rsp), %rdx
	movq	40(%rsp), %rcx
	leaq	__unnamed_15(%rip), %r8
	callq	_ZN4core9panicking18panic_bounds_check17h10ecf9c8d50868d4E
.LBB46_41:
	jmp	.LBB46_17
.LBB46_42:
	movb	159(%rsp), %al
	movq	128(%rsp), %rcx
	movq	88(%rsp), %rdx
	subq	(%rcx), %rdx
	addq	$1, %rdx
	addq	32(%rcx), %rdx
	movq	%rdx, 32(%rcx)
	testb	$1, %al
	jne	.LBB46_44
	movq	128(%rsp), %rax
	movq	$0, 48(%rax)
.LBB46_44:
	jmp	.LBB46_36
	.seh_endproc

	.def	_ZN4core3str7pattern14TwoWaySearcher4next17ha59cd64d55ffd0b6E;
	.scl	3;
	.type	32;
	.endef
	.section	.text,"xr",one_only,_ZN4core3str7pattern14TwoWaySearcher4next17ha59cd64d55ffd0b6E
	.p2align	4, 0x90
_ZN4core3str7pattern14TwoWaySearcher4next17ha59cd64d55ffd0b6E:
.seh_proc _ZN4core3str7pattern14TwoWaySearcher4next17ha59cd64d55ffd0b6E
	subq	$280, %rsp
	.seh_stackalloc 280
	.seh_endprologue
	movq	%r9, 112(%rsp)
	movq	%r8, 120(%rsp)
	movq	%rdx, 128(%rsp)
	movq	%rcx, 136(%rsp)
	movq	%rcx, 144(%rsp)
	movb	336(%rsp), %al
	movb	%al, 159(%rsp)
	movq	328(%rsp), %rax
	movq	%rax, 160(%rsp)
	movq	320(%rsp), %rcx
	movq	%rcx, 168(%rsp)
	movq	32(%rdx), %rcx
	movq	%rcx, 176(%rsp)
	subq	$1, %rax
	movq	%rax, 184(%rsp)
.LBB47_1:
	movq	112(%rsp), %rcx
	movq	128(%rsp), %rdx
	movq	184(%rsp), %rax
	addq	32(%rdx), %rax
	movq	%rax, 104(%rsp)
	cmpq	%rcx, %rax
	jb	.LBB47_3
	movq	176(%rsp), %rdx
	movq	136(%rsp), %rcx
	movq	128(%rsp), %rax
	movq	112(%rsp), %r8
	movq	%r8, 32(%rax)
	movq	32(%rax), %r8
	callq	_ZN84_$LT$core..str..pattern..MatchOnly$u20$as$u20$core..str..pattern..TwoWayStrategy$GT$9rejecting17h7e7c517e498d55e7E
	jmp	.LBB47_4
.LBB47_3:
	movq	104(%rsp), %rcx
	movq	120(%rsp), %rax
	addq	%rcx, %rax
	movq	%rax, 192(%rsp)
	movq	192(%rsp), %rax
	movb	(%rax), %al
	movb	%al, 103(%rsp)
	callq	_ZN84_$LT$core..str..pattern..MatchOnly$u20$as$u20$core..str..pattern..TwoWayStrategy$GT$16use_early_reject17he118971195dc4a95E
	testb	$1, %al
	jne	.LBB47_6
	jmp	.LBB47_5
.LBB47_4:
	movq	144(%rsp), %rax
	addq	$280, %rsp
	retq
.LBB47_5:
	movb	103(%rsp), %cl
	movq	128(%rsp), %rax
	movq	24(%rax), %rax
	andb	$63, %cl
	movzbl	%cl, %ecx
	andq	$63, %rcx
	shrq	%cl, %rax
	andq	$1, %rax
	cmpq	$0, %rax
	je	.LBB47_9
	jmp	.LBB47_10
.LBB47_6:
	movq	176(%rsp), %rax
	movq	128(%rsp), %rcx
	cmpq	32(%rcx), %rax
	jne	.LBB47_8
	jmp	.LBB47_5
.LBB47_8:
	movq	176(%rsp), %rdx
	movq	136(%rsp), %rcx
	movq	128(%rsp), %rax
	movq	32(%rax), %r8
	callq	_ZN84_$LT$core..str..pattern..MatchOnly$u20$as$u20$core..str..pattern..TwoWayStrategy$GT$9rejecting17h7e7c517e498d55e7E
	jmp	.LBB47_4
.LBB47_9:
	movb	159(%rsp), %al
	movq	128(%rsp), %rcx
	movq	160(%rsp), %rdx
	addq	32(%rcx), %rdx
	movq	%rdx, 32(%rcx)
	testb	$1, %al
	jne	.LBB47_12
	jmp	.LBB47_11
.LBB47_10:
	movb	159(%rsp), %al
	testb	$1, %al
	jne	.LBB47_15
	jmp	.LBB47_14
.LBB47_11:
	movq	128(%rsp), %rax
	movq	$0, 48(%rax)
.LBB47_12:
	jmp	.LBB47_13
.LBB47_13:
	jmp	.LBB47_1
.LBB47_14:
	movq	128(%rsp), %rax
	movq	(%rax), %rcx
	movq	48(%rax), %rdx
	callq	_ZN4core3cmp6max_by17h5eb3d25a27e456a3E
	movq	%rax, 200(%rsp)
	jmp	.LBB47_16
.LBB47_15:
	movq	128(%rsp), %rax
	movq	(%rax), %rax
	movq	%rax, 200(%rsp)
.LBB47_16:
	movq	160(%rsp), %rax
	movq	200(%rsp), %rcx
	movq	%rcx, 208(%rsp)
	movq	%rax, 216(%rsp)
.LBB47_17:
	movq	208(%rsp), %rax
	cmpq	216(%rsp), %rax
	jb	.LBB47_19
	movb	159(%rsp), %al
	testb	$1, %al
	jne	.LBB47_21
	jmp	.LBB47_20
.LBB47_19:
	movq	208(%rsp), %rcx
	movq	%rcx, 80(%rsp)
	movl	$1, %edx
	callq	_ZN49_$LT$usize$u20$as$u20$core..iter..range..Step$GT$17forward_unchecked17h08b11184554e6769E
	movq	160(%rsp), %rcx
	movq	%rax, %rdx
	movq	80(%rsp), %rax
	movq	%rdx, 208(%rsp)
	movq	%rax, 232(%rsp)
	movq	$1, 224(%rsp)
	movq	232(%rsp), %rax
	movq	%rax, 88(%rsp)
	cmpq	%rcx, %rax
	jb	.LBB47_37
	jmp	.LBB47_38
.LBB47_20:
	movq	128(%rsp), %rax
	movq	48(%rax), %rax
	movq	%rax, 240(%rsp)
	jmp	.LBB47_22
.LBB47_21:
	movq	$0, 240(%rsp)
.LBB47_22:
	movq	128(%rsp), %rax
	movq	240(%rsp), %rcx
	movq	(%rax), %rax
	movq	%rcx, 248(%rsp)
	movq	%rax, 256(%rsp)
.LBB47_23:
	movq	248(%rsp), %rax
	cmpq	256(%rsp), %rax
	jb	.LBB47_25
	movb	159(%rsp), %al
	movq	128(%rsp), %rcx
	movq	160(%rsp), %rdx
	movq	32(%rcx), %r8
	movq	%r8, 72(%rsp)
	addq	32(%rcx), %rdx
	movq	%rdx, 32(%rcx)
	testb	$1, %al
	jne	.LBB47_27
	jmp	.LBB47_26
.LBB47_25:
	movq	256(%rsp), %rcx
	movl	$1, %edx
	callq	_ZN49_$LT$usize$u20$as$u20$core..iter..range..Step$GT$18backward_unchecked17hd0c8022854f8608fE
	movq	160(%rsp), %rcx
	movq	%rax, 256(%rsp)
	movq	256(%rsp), %rax
	movq	%rax, 272(%rsp)
	movq	$1, 264(%rsp)
	movq	272(%rsp), %rax
	movq	%rax, 64(%rsp)
	cmpq	%rcx, %rax
	jb	.LBB47_28
	jmp	.LBB47_29
.LBB47_26:
	movq	128(%rsp), %rax
	movq	$0, 48(%rax)
.LBB47_27:
	movq	72(%rsp), %rdx
	movq	136(%rsp), %rcx
	movq	160(%rsp), %rax
	movq	%rdx, %r8
	addq	%rax, %r8
	callq	_ZN84_$LT$core..str..pattern..MatchOnly$u20$as$u20$core..str..pattern..TwoWayStrategy$GT$8matching17h873d99d94be8730cE
	jmp	.LBB47_4
.LBB47_28:
	movq	112(%rsp), %rcx
	movq	128(%rsp), %rdx
	movq	64(%rsp), %rax
	movq	168(%rsp), %r8
	movb	(%r8,%rax), %r8b
	movb	%r8b, 55(%rsp)
	addq	32(%rdx), %rax
	movq	%rax, 56(%rsp)
	cmpq	%rcx, %rax
	jb	.LBB47_30
	jmp	.LBB47_31
.LBB47_29:
	movq	160(%rsp), %rdx
	movq	64(%rsp), %rcx
	leaq	__unnamed_12(%rip), %r8
	callq	_ZN4core9panicking18panic_bounds_check17h10ecf9c8d50868d4E
.LBB47_30:
	movb	55(%rsp), %al
	movq	120(%rsp), %rcx
	movq	56(%rsp), %rdx
	cmpb	(%rcx,%rdx), %al
	jne	.LBB47_33
	jmp	.LBB47_32
.LBB47_31:
	movq	112(%rsp), %rdx
	movq	56(%rsp), %rcx
	leaq	__unnamed_13(%rip), %r8
	callq	_ZN4core9panicking18panic_bounds_check17h10ecf9c8d50868d4E
.LBB47_32:
	jmp	.LBB47_23
.LBB47_33:
	movb	159(%rsp), %al
	movq	128(%rsp), %rcx
	movq	16(%rcx), %rdx
	addq	32(%rcx), %rdx
	movq	%rdx, 32(%rcx)
	testb	$1, %al
	jne	.LBB47_35
	movq	128(%rsp), %rax
	movq	160(%rsp), %rcx
	subq	16(%rax), %rcx
	movq	%rcx, 48(%rax)
.LBB47_35:
	jmp	.LBB47_36
.LBB47_36:
	jmp	.LBB47_13
.LBB47_37:
	movq	112(%rsp), %rcx
	movq	128(%rsp), %rdx
	movq	88(%rsp), %rax
	movq	168(%rsp), %r8
	movb	(%r8,%rax), %r8b
	movb	%r8b, 39(%rsp)
	addq	32(%rdx), %rax
	movq	%rax, 40(%rsp)
	cmpq	%rcx, %rax
	jb	.LBB47_39
	jmp	.LBB47_40
.LBB47_38:
	movq	160(%rsp), %rdx
	movq	88(%rsp), %rcx
	leaq	__unnamed_14(%rip), %r8
	callq	_ZN4core9panicking18panic_bounds_check17h10ecf9c8d50868d4E
.LBB47_39:
	movb	39(%rsp), %al
	movq	120(%rsp), %rcx
	movq	40(%rsp), %rdx
	cmpb	(%rcx,%rdx), %al
	jne	.LBB47_42
	jmp	.LBB47_41
.LBB47_40:
	movq	112(%rsp), %rdx
	movq	40(%rsp), %rcx
	leaq	__unnamed_15(%rip), %r8
	callq	_ZN4core9panicking18panic_bounds_check17h10ecf9c8d50868d4E
.LBB47_41:
	jmp	.LBB47_17
.LBB47_42:
	movb	159(%rsp), %al
	movq	128(%rsp), %rcx
	movq	88(%rsp), %rdx
	subq	(%rcx), %rdx
	addq	$1, %rdx
	addq	32(%rcx), %rdx
	movq	%rdx, 32(%rcx)
	testb	$1, %al
	jne	.LBB47_44
	movq	128(%rsp), %rax
	movq	$0, 48(%rax)
.LBB47_44:
	jmp	.LBB47_36
	.seh_endproc

	.def	_ZN4core4char7convert18from_u32_unchecked18precondition_check17h7de38b466df3c714E;
	.scl	3;
	.type	32;
	.endef
	.section	.text,"xr",one_only,_ZN4core4char7convert18from_u32_unchecked18precondition_check17h7de38b466df3c714E
	.p2align	4, 0x90
_ZN4core4char7convert18from_u32_unchecked18precondition_check17h7de38b466df3c714E:
.seh_proc _ZN4core4char7convert18from_u32_unchecked18precondition_check17h7de38b466df3c714E
	subq	$40, %rsp
	.seh_stackalloc 40
	.seh_endprologue
	movl	%ecx, %eax
	movl	%eax, 32(%rsp)
	xorl	$55296, %eax
	subl	$2048, %eax
	cmpl	$1112064, %eax
	jae	.LBB48_2
	movl	32(%rsp), %eax
	movl	%eax, 36(%rsp)
	jmp	.LBB48_3
.LBB48_2:
	movl	$1114112, 36(%rsp)
.LBB48_3:
	xorl	%eax, %eax
	movl	$1, %ecx
	cmpl	$1114112, 36(%rsp)
	cmoveq	%rcx, %rax
	cmpq	$0, %rax
	jne	.LBB48_5
	addq	$40, %rsp
	retq
.LBB48_5:
	leaq	__unnamed_16(%rip), %rcx
	movl	$57, %edx
	callq	_ZN4core9panicking14panic_nounwind17h7093548e2b172a67E
	int3
	.seh_endproc

	.def	_ZN4core4hint21unreachable_unchecked18precondition_check17hf8788716f3e14b08E;
	.scl	3;
	.type	32;
	.endef
	.section	.text,"xr",one_only,_ZN4core4hint21unreachable_unchecked18precondition_check17hf8788716f3e14b08E
	.p2align	4, 0x90
_ZN4core4hint21unreachable_unchecked18precondition_check17hf8788716f3e14b08E:
.seh_proc _ZN4core4hint21unreachable_unchecked18precondition_check17hf8788716f3e14b08E
	subq	$40, %rsp
	.seh_stackalloc 40
	.seh_endprologue
	leaq	__unnamed_17(%rip), %rcx
	movl	$82, %edx
	callq	_ZN4core9panicking14panic_nounwind17h7093548e2b172a67E
	int3
	.seh_endproc

	.def	_ZN4core4iter6traits8iterator8Iterator9enumerate17hd3e5bc9d5d57b7e1E;
	.scl	3;
	.type	32;
	.endef
	.section	.text,"xr",one_only,_ZN4core4iter6traits8iterator8Iterator9enumerate17hd3e5bc9d5d57b7e1E
	.p2align	4, 0x90
_ZN4core4iter6traits8iterator8Iterator9enumerate17hd3e5bc9d5d57b7e1E:
	movq	%rcx, %rax
	movq	%rdx, (%rcx)
	movq	%r8, 8(%rcx)
	movq	$0, 16(%rcx)
	retq

	.def	_ZN4core5slice29_$LT$impl$u20$$u5b$T$u5d$$GT$4iter17h192027fd5d104fb2E;
	.scl	3;
	.type	32;
	.endef
	.section	.text,"xr",one_only,_ZN4core5slice29_$LT$impl$u20$$u5b$T$u5d$$GT$4iter17h192027fd5d104fb2E
	.p2align	4, 0x90
_ZN4core5slice29_$LT$impl$u20$$u5b$T$u5d$$GT$4iter17h192027fd5d104fb2E:
.seh_proc _ZN4core5slice29_$LT$impl$u20$$u5b$T$u5d$$GT$4iter17h192027fd5d104fb2E
	subq	$40, %rsp
	.seh_stackalloc 40
	.seh_endprologue
	callq	_ZN4core5slice4iter13Iter$LT$T$GT$3new17h0839ce11972d681aE
	nop
	addq	$40, %rsp
	retq
	.seh_endproc

	.def	_ZN4core5slice3raw14from_raw_parts18precondition_check17h140fead6cf517e8aE;
	.scl	3;
	.type	32;
	.endef
	.section	.text,"xr",one_only,_ZN4core5slice3raw14from_raw_parts18precondition_check17h140fead6cf517e8aE
	.p2align	4, 0x90
_ZN4core5slice3raw14from_raw_parts18precondition_check17h140fead6cf517e8aE:
.Lfunc_begin8:
.seh_proc _ZN4core5slice3raw14from_raw_parts18precondition_check17h140fead6cf517e8aE
	.seh_handler __CxxFrameHandler3, @unwind, @except
	pushq	%rbp
	.seh_pushreg %rbp
	subq	$144, %rsp
	.seh_stackalloc 144
	leaq	128(%rsp), %rbp
	.seh_setframe %rbp, 128
	.seh_endprologue
	movq	$-2, 8(%rbp)
	movq	%r9, -88(%rbp)
	movq	%r8, -80(%rbp)
	movq	%rdx, -72(%rbp)
	movq	%rcx, -64(%rbp)
	cmpq	$0, %rcx
	jne	.LBB52_2
	jmp	.LBB52_3
.LBB52_2:
	movq	-80(%rbp), %rcx
	movq	%rcx, %rax
	shrq	%rax
	movabsq	$6148914691236517205, %rdx
	andq	%rdx, %rax
	subq	%rax, %rcx
	movabsq	$3689348814741910323, %rdx
	movq	%rcx, %rax
	andq	%rdx, %rax
	shrq	$2, %rcx
	andq	%rdx, %rcx
	addq	%rcx, %rax
	movq	%rax, %rcx
	shrq	$4, %rcx
	addq	%rcx, %rax
	movabsq	$1085102592571150095, %rcx
	andq	%rcx, %rax
	movabsq	$72340172838076673, %rcx
	imulq	%rcx, %rax
	shrq	$56, %rax
	movl	%eax, 4(%rbp)
	cmpl	$1, 4(%rbp)
	je	.LBB52_4
	jmp	.LBB52_5
.LBB52_3:
	jmp	.LBB52_7
.LBB52_4:
	movq	-64(%rbp), %rax
	movq	-80(%rbp), %rcx
	subq	$1, %rcx
	andq	%rcx, %rax
	cmpq	$0, %rax
	je	.LBB52_6
	jmp	.LBB52_3
.LBB52_5:
	leaq	__unnamed_18(%rip), %rax
	movq	%rax, -56(%rbp)
	movq	$1, -48(%rbp)
	movq	$0, -24(%rbp)
	movq	$8, -40(%rbp)
	movq	$0, -32(%rbp)
.Ltmp22:
	leaq	__unnamed_19(%rip), %rdx
	leaq	-56(%rbp), %rcx
	callq	_ZN4core9panicking9panic_fmt17he40e6636f08a2a3aE
.Ltmp23:
	jmp	.LBB52_14
.LBB52_6:
	movq	-72(%rbp), %rax
	cmpq	$0, %rax
	sete	%cl
	movb	%cl, -89(%rbp)
	cmpq	$0, %rax
	je	.LBB52_8
	jmp	.LBB52_9
.LBB52_7:
	leaq	__unnamed_20(%rip), %rcx
	movl	$162, %edx
	callq	_ZN4core9panicking14panic_nounwind17h7093548e2b172a67E
.LBB52_8:
	movq	$-1, -8(%rbp)
	jmp	.LBB52_10
.LBB52_9:
	movb	-89(%rbp), %al
	testb	$1, %al
	jne	.LBB52_12
	jmp	.LBB52_11
.LBB52_10:
	movq	-88(%rbp), %rax
	cmpq	-8(%rbp), %rax
	jbe	.LBB52_16
	jmp	.LBB52_15
.LBB52_11:
	movq	-72(%rbp), %rcx
	movabsq	$9223372036854775807, %rax
	xorl	%edx, %edx
	divq	%rcx
	movq	%rax, -8(%rbp)
	jmp	.LBB52_10
.LBB52_12:
.Ltmp24:
	leaq	__unnamed_21(%rip), %rcx
	callq	_ZN4core9panicking11panic_const23panic_const_div_by_zero17ha5e37b253baa0587E
.Ltmp25:
	jmp	.LBB52_14
.LBB52_14:
	ud2
.LBB52_15:
	jmp	.LBB52_7
.LBB52_16:
	addq	$144, %rsp
	popq	%rbp
	retq
	.seh_handlerdata
	.long	($cppxdata$_ZN4core5slice3raw14from_raw_parts18precondition_check17h140fead6cf517e8aE)@IMGREL
	.section	.text,"xr",one_only,_ZN4core5slice3raw14from_raw_parts18precondition_check17h140fead6cf517e8aE
	.seh_endproc
	.def	"?catch$13@?0?_ZN4core5slice3raw14from_raw_parts18precondition_check17h140fead6cf517e8aE@4HA";
	.scl	3;
	.type	32;
	.endef
	.p2align	4, 0x90
"?catch$13@?0?_ZN4core5slice3raw14from_raw_parts18precondition_check17h140fead6cf517e8aE@4HA":
.seh_proc "?catch$13@?0?_ZN4core5slice3raw14from_raw_parts18precondition_check17h140fead6cf517e8aE@4HA"
	.seh_handler __CxxFrameHandler3, @unwind, @except
.LBB52_13:
	movq	%rdx, 16(%rsp)
	pushq	%rbp
	.seh_pushreg %rbp
	subq	$32, %rsp
	.seh_stackalloc 32
	leaq	128(%rdx), %rbp
	.seh_endprologue
	callq	_ZN4core9panicking19panic_cannot_unwind17h32d3de7860bb5a4dE
	int3
.Lfunc_end8:
	.seh_handlerdata
	.long	($cppxdata$_ZN4core5slice3raw14from_raw_parts18precondition_check17h140fead6cf517e8aE)@IMGREL
	.section	.text,"xr",one_only,_ZN4core5slice3raw14from_raw_parts18precondition_check17h140fead6cf517e8aE
	.seh_endproc
	.section	.xdata,"dr",associative,_ZN4core5slice3raw14from_raw_parts18precondition_check17h140fead6cf517e8aE
	.p2align	2, 0x0
$cppxdata$_ZN4core5slice3raw14from_raw_parts18precondition_check17h140fead6cf517e8aE:
	.long	429065506
	.long	2
	.long	($stateUnwindMap$_ZN4core5slice3raw14from_raw_parts18precondition_check17h140fead6cf517e8aE)@IMGREL
	.long	1
	.long	($tryMap$_ZN4core5slice3raw14from_raw_parts18precondition_check17h140fead6cf517e8aE)@IMGREL
	.long	4
	.long	($ip2state$_ZN4core5slice3raw14from_raw_parts18precondition_check17h140fead6cf517e8aE)@IMGREL
	.long	136
	.long	0
	.long	1
$stateUnwindMap$_ZN4core5slice3raw14from_raw_parts18precondition_check17h140fead6cf517e8aE:
	.long	-1
	.long	0
	.long	-1
	.long	0
$tryMap$_ZN4core5slice3raw14from_raw_parts18precondition_check17h140fead6cf517e8aE:
	.long	0
	.long	0
	.long	1
	.long	1
	.long	($handlerMap$0$_ZN4core5slice3raw14from_raw_parts18precondition_check17h140fead6cf517e8aE)@IMGREL
$handlerMap$0$_ZN4core5slice3raw14from_raw_parts18precondition_check17h140fead6cf517e8aE:
	.long	64
	.long	0
	.long	0
	.long	"?catch$13@?0?_ZN4core5slice3raw14from_raw_parts18precondition_check17h140fead6cf517e8aE@4HA"@IMGREL
	.long	56
$ip2state$_ZN4core5slice3raw14from_raw_parts18precondition_check17h140fead6cf517e8aE:
	.long	.Lfunc_begin8@IMGREL
	.long	-1
	.long	.Ltmp22@IMGREL+1
	.long	0
	.long	.Ltmp25@IMGREL+1
	.long	-1
	.long	"?catch$13@?0?_ZN4core5slice3raw14from_raw_parts18precondition_check17h140fead6cf517e8aE@4HA"@IMGREL
	.long	1
	.section	.text,"xr",one_only,_ZN4core5slice3raw14from_raw_parts18precondition_check17h140fead6cf517e8aE

	.def	_ZN4core5slice4iter13Iter$LT$T$GT$3new17h0839ce11972d681aE;
	.scl	3;
	.type	32;
	.endef
	.section	.text,"xr",one_only,_ZN4core5slice4iter13Iter$LT$T$GT$3new17h0839ce11972d681aE
	.p2align	4, 0x90
_ZN4core5slice4iter13Iter$LT$T$GT$3new17h0839ce11972d681aE:
.seh_proc _ZN4core5slice4iter13Iter$LT$T$GT$3new17h0839ce11972d681aE
	subq	$24, %rsp
	.seh_stackalloc 24
	.seh_endprologue
	movq	%rdx, (%rsp)
	movq	%rcx, 8(%rsp)
	movq	8(%rsp), %rax
	movq	(%rsp), %rcx
	shlq	$2, %rcx
	addq	%rcx, %rax
	movq	%rax, 16(%rsp)
	movq	8(%rsp), %rax
	movq	16(%rsp), %rdx
	addq	$24, %rsp
	retq
	.seh_endproc

	.def	_ZN4core6result19Result$LT$T$C$E$GT$6expect17hd06dc18a21a087d5E;
	.scl	3;
	.type	32;
	.endef
	.section	.text,"xr",one_only,_ZN4core6result19Result$LT$T$C$E$GT$6expect17hd06dc18a21a087d5E
	.p2align	4, 0x90
_ZN4core6result19Result$LT$T$C$E$GT$6expect17hd06dc18a21a087d5E:
.Lfunc_begin9:
.seh_proc _ZN4core6result19Result$LT$T$C$E$GT$6expect17hd06dc18a21a087d5E
	.seh_handler __CxxFrameHandler3, @unwind, @except
	pushq	%rbp
	.seh_pushreg %rbp
	subq	$112, %rsp
	.seh_stackalloc 112
	leaq	112(%rsp), %rbp
	.seh_setframe %rbp, 112
	.seh_endprologue
	movq	$-2, -8(%rbp)
	movq	%r9, -64(%rbp)
	movq	%r8, -56(%rbp)
	movq	%rdx, -48(%rbp)
	movq	%rcx, -40(%rbp)
	movq	%rcx, -32(%rbp)
	movq	48(%rbp), %rax
	movq	%rax, -24(%rbp)
	movabsq	$-9223372036854775808, %r8
	xorl	%eax, %eax
	movl	$1, %ecx
	cmpq	%r8, (%rdx)
	cmoveq	%rcx, %rax
	cmpq	$0, %rax
	jne	.LBB54_2
	movq	-32(%rbp), %rax
	movq	-40(%rbp), %rcx
	movq	-48(%rbp), %rdx
	movq	(%rdx), %r8
	movq	%r8, (%rcx)
	movq	8(%rdx), %r8
	movq	%r8, 8(%rcx)
	movq	16(%rdx), %rdx
	movq	%rdx, 16(%rcx)
	addq	$112, %rsp
	popq	%rbp
	retq
.LBB54_2:
	movq	-64(%rbp), %rdx
	movq	-56(%rbp), %rcx
	movq	-24(%rbp), %r8
	movq	-48(%rbp), %rax
	movq	8(%rax), %rax
	movq	%rax, -16(%rbp)
.Ltmp26:
	movq	%rsp, %rax
	movq	%r8, 32(%rax)
	leaq	__unnamed_22(%rip), %r9
	leaq	-16(%rbp), %r8
	callq	_ZN4core6result13unwrap_failed17h885346acca3626efE
.Ltmp27:
	jmp	.LBB54_4
.LBB54_4:
	ud2
	.seh_handlerdata
	.long	($cppxdata$_ZN4core6result19Result$LT$T$C$E$GT$6expect17hd06dc18a21a087d5E)@IMGREL
	.section	.text,"xr",one_only,_ZN4core6result19Result$LT$T$C$E$GT$6expect17hd06dc18a21a087d5E
	.seh_endproc
	.def	"?dtor$3@?0?_ZN4core6result19Result$LT$T$C$E$GT$6expect17hd06dc18a21a087d5E@4HA";
	.scl	3;
	.type	32;
	.endef
	.p2align	4, 0x90
"?dtor$3@?0?_ZN4core6result19Result$LT$T$C$E$GT$6expect17hd06dc18a21a087d5E@4HA":
.seh_proc "?dtor$3@?0?_ZN4core6result19Result$LT$T$C$E$GT$6expect17hd06dc18a21a087d5E@4HA"
.LBB54_3:
	movq	%rdx, 16(%rsp)
	pushq	%rbp
	.seh_pushreg %rbp
	subq	$48, %rsp
	.seh_stackalloc 48
	leaq	112(%rdx), %rbp
	.seh_endprologue
	leaq	-16(%rbp), %rcx
	callq	_ZN4core3ptr42drop_in_place$LT$std..io..error..Error$GT$17hcfa0d9b32f18f535E
	nop
	addq	$48, %rsp
	popq	%rbp
	retq
.Lfunc_end9:
	.seh_handlerdata
	.section	.text,"xr",one_only,_ZN4core6result19Result$LT$T$C$E$GT$6expect17hd06dc18a21a087d5E
	.seh_endproc
	.section	.xdata,"dr",associative,_ZN4core6result19Result$LT$T$C$E$GT$6expect17hd06dc18a21a087d5E
	.p2align	2, 0x0
$cppxdata$_ZN4core6result19Result$LT$T$C$E$GT$6expect17hd06dc18a21a087d5E:
	.long	429065506
	.long	1
	.long	($stateUnwindMap$_ZN4core6result19Result$LT$T$C$E$GT$6expect17hd06dc18a21a087d5E)@IMGREL
	.long	0
	.long	0
	.long	3
	.long	($ip2state$_ZN4core6result19Result$LT$T$C$E$GT$6expect17hd06dc18a21a087d5E)@IMGREL
	.long	104
	.long	0
	.long	1
$stateUnwindMap$_ZN4core6result19Result$LT$T$C$E$GT$6expect17hd06dc18a21a087d5E:
	.long	-1
	.long	"?dtor$3@?0?_ZN4core6result19Result$LT$T$C$E$GT$6expect17hd06dc18a21a087d5E@4HA"@IMGREL
$ip2state$_ZN4core6result19Result$LT$T$C$E$GT$6expect17hd06dc18a21a087d5E:
	.long	.Lfunc_begin9@IMGREL
	.long	-1
	.long	.Ltmp26@IMGREL+1
	.long	0
	.long	.Ltmp27@IMGREL+1
	.long	-1
	.section	.text,"xr",one_only,_ZN4core6result19Result$LT$T$C$E$GT$6expect17hd06dc18a21a087d5E

	.def	_ZN54_$LT$$LP$$RP$$u20$as$u20$std..process..Termination$GT$6report17h8d0b3a359f8c96feE;
	.scl	3;
	.type	32;
	.endef
	.section	.text,"xr",one_only,_ZN54_$LT$$LP$$RP$$u20$as$u20$std..process..Termination$GT$6report17h8d0b3a359f8c96feE
	.p2align	4, 0x90
_ZN54_$LT$$LP$$RP$$u20$as$u20$std..process..Termination$GT$6report17h8d0b3a359f8c96feE:
	xorl	%eax, %eax
	retq

	.def	_ZN55_$LT$$RF$T$u20$as$u20$core..convert..AsRef$LT$U$GT$$GT$6as_ref17h8fcb660b7beead96E;
	.scl	3;
	.type	32;
	.endef
	.section	.text,"xr",one_only,_ZN55_$LT$$RF$T$u20$as$u20$core..convert..AsRef$LT$U$GT$$GT$6as_ref17h8fcb660b7beead96E
	.p2align	4, 0x90
_ZN55_$LT$$RF$T$u20$as$u20$core..convert..AsRef$LT$U$GT$$GT$6as_ref17h8fcb660b7beead96E:
.seh_proc _ZN55_$LT$$RF$T$u20$as$u20$core..convert..AsRef$LT$U$GT$$GT$6as_ref17h8fcb660b7beead96E
	subq	$40, %rsp
	.seh_stackalloc 40
	.seh_endprologue
	movq	%rcx, %rax
	movq	(%rax), %rcx
	movq	8(%rax), %rdx
	callq	_ZN3std4path77_$LT$impl$u20$core..convert..AsRef$LT$std..path..Path$GT$$u20$for$u20$str$GT$6as_ref17h761de4fa187704d5E
	nop
	addq	$40, %rsp
	retq
	.seh_endproc

	.def	_ZN55_$LT$$RF$str$u20$as$u20$core..str..pattern..Pattern$GT$13into_searcher17h2ec266cfe668f199E;
	.scl	3;
	.type	32;
	.endef
	.section	.text,"xr",one_only,_ZN55_$LT$$RF$str$u20$as$u20$core..str..pattern..Pattern$GT$13into_searcher17h2ec266cfe668f199E
	.p2align	4, 0x90
_ZN55_$LT$$RF$str$u20$as$u20$core..str..pattern..Pattern$GT$13into_searcher17h2ec266cfe668f199E:
.seh_proc _ZN55_$LT$$RF$str$u20$as$u20$core..str..pattern..Pattern$GT$13into_searcher17h2ec266cfe668f199E
	subq	$56, %rsp
	.seh_stackalloc 56
	.seh_endprologue
	movq	%r9, 40(%rsp)
	movq	%r8, %rax
	movq	%rdx, %r9
	movq	40(%rsp), %rdx
	movq	%rcx, %r8
	movq	%r8, 48(%rsp)
	movq	96(%rsp), %r8
	movq	%rax, 32(%rsp)
	callq	_ZN4core3str7pattern11StrSearcher3new17hf22e649707c7660cE
	movq	48(%rsp), %rax
	addq	$56, %rsp
	retq
	.seh_endproc

	.def	_ZN5alloc7raw_vec19RawVec$LT$T$C$A$GT$14current_memory17hdaa6a1741acc0516E;
	.scl	3;
	.type	32;
	.endef
	.section	.text,"xr",one_only,_ZN5alloc7raw_vec19RawVec$LT$T$C$A$GT$14current_memory17hdaa6a1741acc0516E
	.p2align	4, 0x90
_ZN5alloc7raw_vec19RawVec$LT$T$C$A$GT$14current_memory17hdaa6a1741acc0516E:
.seh_proc _ZN5alloc7raw_vec19RawVec$LT$T$C$A$GT$14current_memory17hdaa6a1741acc0516E
	subq	$88, %rsp
	.seh_stackalloc 88
	.seh_endprologue
	movq	%rdx, 40(%rsp)
	movq	%rcx, 48(%rsp)
	movq	%rcx, 56(%rsp)
	movq	40(%rsp), %rax
	cmpq	$0, (%rax)
	jne	.LBB58_3
	jmp	.LBB58_4
.LBB58_3:
	movq	40(%rsp), %rax
	movq	(%rax), %rax
	movq	%rax, 32(%rsp)
	jmp	.LBB58_5
.LBB58_4:
	movq	48(%rsp), %rax
	movq	$0, 8(%rax)
	jmp	.LBB58_7
.LBB58_5:
	movq	32(%rsp), %rdx
	movl	$1, %ecx
	callq	_ZN4core3num23_$LT$impl$u20$usize$GT$13unchecked_mul18precondition_check17hbe390293b6ae62a5E
	movq	48(%rsp), %rax
	movq	40(%rsp), %rdx
	movq	32(%rsp), %rcx
	shlq	$0, %rcx
	movq	8(%rdx), %rdx
	movq	%rdx, 64(%rsp)
	movq	$1, 72(%rsp)
	movq	%rcx, 80(%rsp)
	movq	64(%rsp), %rcx
	movq	%rcx, (%rax)
	movq	72(%rsp), %rcx
	movq	%rcx, 8(%rax)
	movq	80(%rsp), %rcx
	movq	%rcx, 16(%rax)
.LBB58_7:
	movq	56(%rsp), %rax
	addq	$88, %rsp
	retq
	.seh_endproc

	.def	_ZN63_$LT$I$u20$as$u20$core..iter..traits..collect..IntoIterator$GT$9into_iter17h1b2a6d2727b6d2bbE;
	.scl	3;
	.type	32;
	.endef
	.section	.text,"xr",one_only,_ZN63_$LT$I$u20$as$u20$core..iter..traits..collect..IntoIterator$GT$9into_iter17h1b2a6d2727b6d2bbE
	.p2align	4, 0x90
_ZN63_$LT$I$u20$as$u20$core..iter..traits..collect..IntoIterator$GT$9into_iter17h1b2a6d2727b6d2bbE:
	movq	%rcx, %rax
	movq	(%rdx), %r8
	movq	%r8, (%rcx)
	movq	8(%rdx), %r8
	movq	%r8, 8(%rcx)
	movq	16(%rdx), %rdx
	movq	%rdx, 16(%rcx)
	retq

	.def	_ZN63_$LT$I$u20$as$u20$core..iter..traits..collect..IntoIterator$GT$9into_iter17h4d83a55d4da47fd1E;
	.scl	3;
	.type	32;
	.endef
	.section	.text,"xr",one_only,_ZN63_$LT$I$u20$as$u20$core..iter..traits..collect..IntoIterator$GT$9into_iter17h4d83a55d4da47fd1E
	.p2align	4, 0x90
_ZN63_$LT$I$u20$as$u20$core..iter..traits..collect..IntoIterator$GT$9into_iter17h4d83a55d4da47fd1E:
.seh_proc _ZN63_$LT$I$u20$as$u20$core..iter..traits..collect..IntoIterator$GT$9into_iter17h4d83a55d4da47fd1E
	subq	$40, %rsp
	.seh_stackalloc 40
	.seh_endprologue
	movq	%rcx, %rax
	movq	%rax, 32(%rsp)
	movl	$128, %r8d
	callq	memcpy
	movq	32(%rsp), %rax
	addq	$40, %rsp
	retq
	.seh_endproc

	.def	_ZN63_$LT$alloc..alloc..Global$u20$as$u20$core..alloc..Allocator$GT$10deallocate17hd1f664c71a78aa50E;
	.scl	3;
	.type	32;
	.endef
	.section	.text,"xr",one_only,_ZN63_$LT$alloc..alloc..Global$u20$as$u20$core..alloc..Allocator$GT$10deallocate17hd1f664c71a78aa50E
	.p2align	4, 0x90
_ZN63_$LT$alloc..alloc..Global$u20$as$u20$core..alloc..Allocator$GT$10deallocate17hd1f664c71a78aa50E:
.seh_proc _ZN63_$LT$alloc..alloc..Global$u20$as$u20$core..alloc..Allocator$GT$10deallocate17hd1f664c71a78aa50E
	subq	$88, %rsp
	.seh_stackalloc 88
	.seh_endprologue
	movq	%rdx, 32(%rsp)
	movq	%r8, 48(%rsp)
	movq	%r9, 56(%rsp)
	movq	56(%rsp), %rax
	movq	%rax, 40(%rsp)
	cmpq	$0, %rax
	jne	.LBB61_2
.LBB61_1:
	addq	$88, %rsp
	retq
.LBB61_2:
	movq	40(%rsp), %rdx
	movq	32(%rsp), %rcx
	movq	48(%rsp), %r8
	movq	56(%rsp), %rax
	movq	%r8, 64(%rsp)
	movq	%rax, 72(%rsp)
	movq	48(%rsp), %rax
	movq	%rax, 80(%rsp)
	movq	80(%rsp), %r8
	callq	__rust_dealloc
	jmp	.LBB61_1
	.seh_endproc

	.def	_ZN65_$LT$alloc..string..String$u20$as$u20$core..ops..deref..Deref$GT$5deref17h18f77accc55ca1fcE;
	.scl	3;
	.type	32;
	.endef
	.section	.text,"xr",one_only,_ZN65_$LT$alloc..string..String$u20$as$u20$core..ops..deref..Deref$GT$5deref17h18f77accc55ca1fcE
	.p2align	4, 0x90
_ZN65_$LT$alloc..string..String$u20$as$u20$core..ops..deref..Deref$GT$5deref17h18f77accc55ca1fcE:
.seh_proc _ZN65_$LT$alloc..string..String$u20$as$u20$core..ops..deref..Deref$GT$5deref17h18f77accc55ca1fcE
	subq	$56, %rsp
	.seh_stackalloc 56
	.seh_endprologue
	movq	8(%rcx), %rax
	movq	%rax, 40(%rsp)
	movq	16(%rcx), %rax
	movq	%rax, 48(%rsp)
	movq	48(%rsp), %r9
	movq	40(%rsp), %rcx
	movl	$1, %r8d
	movq	%r8, %rdx
	callq	_ZN4core5slice3raw14from_raw_parts18precondition_check17h140fead6cf517e8aE
	movq	48(%rsp), %rdx
	movq	40(%rsp), %rax
	addq	$56, %rsp
	retq
	.seh_endproc

	.def	_ZN70_$LT$alloc..vec..Vec$LT$T$C$A$GT$$u20$as$u20$core..ops..drop..Drop$GT$4drop17he458901a7b0c1aacE;
	.scl	3;
	.type	32;
	.endef
	.section	.text,"xr",one_only,_ZN70_$LT$alloc..vec..Vec$LT$T$C$A$GT$$u20$as$u20$core..ops..drop..Drop$GT$4drop17he458901a7b0c1aacE
	.p2align	4, 0x90
_ZN70_$LT$alloc..vec..Vec$LT$T$C$A$GT$$u20$as$u20$core..ops..drop..Drop$GT$4drop17he458901a7b0c1aacE:
	retq

	.def	_ZN72_$LT$alloc..boxed..Box$LT$T$C$A$GT$$u20$as$u20$core..ops..drop..Drop$GT$4drop17h46aadc538bfdb972E;
	.scl	3;
	.type	32;
	.endef
	.section	.text,"xr",one_only,_ZN72_$LT$alloc..boxed..Box$LT$T$C$A$GT$$u20$as$u20$core..ops..drop..Drop$GT$4drop17h46aadc538bfdb972E
	.p2align	4, 0x90
_ZN72_$LT$alloc..boxed..Box$LT$T$C$A$GT$$u20$as$u20$core..ops..drop..Drop$GT$4drop17h46aadc538bfdb972E:
.seh_proc _ZN72_$LT$alloc..boxed..Box$LT$T$C$A$GT$$u20$as$u20$core..ops..drop..Drop$GT$4drop17h46aadc538bfdb972E
	subq	$88, %rsp
	.seh_stackalloc 88
	.seh_endprologue
	movq	%rcx, 40(%rsp)
	movq	(%rcx), %rax
	movq	%rax, 48(%rsp)
	movq	8(%rcx), %rcx
	movq	8(%rcx), %rax
	movq	%rax, 72(%rsp)
	movq	72(%rsp), %rax
	movq	16(%rcx), %rcx
	movq	%rcx, 80(%rsp)
	movq	80(%rsp), %rcx
	movq	%rax, 64(%rsp)
	movq	%rcx, 56(%rsp)
	cmpq	$0, %rax
	jne	.LBB64_2
.LBB64_1:
	addq	$88, %rsp
	retq
.LBB64_2:
	movq	48(%rsp), %rdx
	movq	40(%rsp), %rcx
	addq	$16, %rcx
	movq	56(%rsp), %r8
	movq	64(%rsp), %r9
	callq	_ZN63_$LT$alloc..alloc..Global$u20$as$u20$core..alloc..Allocator$GT$10deallocate17hd1f664c71a78aa50E
	jmp	.LBB64_1
	.seh_endproc

	.def	_ZN72_$LT$alloc..boxed..Box$LT$T$C$A$GT$$u20$as$u20$core..ops..drop..Drop$GT$4drop17h61ca0155059b5ef0E;
	.scl	3;
	.type	32;
	.endef
	.section	.text,"xr",one_only,_ZN72_$LT$alloc..boxed..Box$LT$T$C$A$GT$$u20$as$u20$core..ops..drop..Drop$GT$4drop17h61ca0155059b5ef0E
	.p2align	4, 0x90
_ZN72_$LT$alloc..boxed..Box$LT$T$C$A$GT$$u20$as$u20$core..ops..drop..Drop$GT$4drop17h61ca0155059b5ef0E:
.seh_proc _ZN72_$LT$alloc..boxed..Box$LT$T$C$A$GT$$u20$as$u20$core..ops..drop..Drop$GT$4drop17h61ca0155059b5ef0E
	subq	$88, %rsp
	.seh_stackalloc 88
	.seh_endprologue
	movq	%rcx, 40(%rsp)
	movq	(%rcx), %rax
	movq	%rax, 48(%rsp)
	movq	$24, 72(%rsp)
	movq	72(%rsp), %rax
	movq	$8, 80(%rsp)
	movq	80(%rsp), %rcx
	movq	%rax, 64(%rsp)
	movq	%rcx, 56(%rsp)
	cmpq	$0, %rax
	jne	.LBB65_2
.LBB65_1:
	addq	$88, %rsp
	retq
.LBB65_2:
	movq	48(%rsp), %rdx
	movq	40(%rsp), %rcx
	addq	$8, %rcx
	movq	56(%rsp), %r8
	movq	64(%rsp), %r9
	callq	_ZN63_$LT$alloc..alloc..Global$u20$as$u20$core..alloc..Allocator$GT$10deallocate17hd1f664c71a78aa50E
	jmp	.LBB65_1
	.seh_endproc

	.def	_ZN73_$LT$$u5b$A$u5d$$u20$as$u20$core..slice..cmp..SlicePartialEq$LT$B$GT$$GT$5equal17he16b2c05b62ebb74E;
	.scl	3;
	.type	32;
	.endef
	.section	.text,"xr",one_only,_ZN73_$LT$$u5b$A$u5d$$u20$as$u20$core..slice..cmp..SlicePartialEq$LT$B$GT$$GT$5equal17he16b2c05b62ebb74E
	.p2align	4, 0x90
_ZN73_$LT$$u5b$A$u5d$$u20$as$u20$core..slice..cmp..SlicePartialEq$LT$B$GT$$GT$5equal17he16b2c05b62ebb74E:
.seh_proc _ZN73_$LT$$u5b$A$u5d$$u20$as$u20$core..slice..cmp..SlicePartialEq$LT$B$GT$$GT$5equal17he16b2c05b62ebb74E
	subq	$88, %rsp
	.seh_stackalloc 88
	.seh_endprologue
	movq	%r8, 40(%rsp)
	movq	%rdx, 48(%rsp)
	movq	%rcx, 56(%rsp)
	cmpq	%r9, %rdx
	jne	.LBB66_2
	movq	40(%rsp), %rdx
	movq	56(%rsp), %rcx
	movq	48(%rsp), %rax
	shlq	$0, %rax
	movq	%rax, 72(%rsp)
	movq	72(%rsp), %r8
	callq	memcmp
	movl	%eax, 84(%rsp)
	cmpl	$0, 84(%rsp)
	sete	%al
	andb	$1, %al
	movb	%al, 71(%rsp)
	jmp	.LBB66_3
.LBB66_2:
	movb	$0, 71(%rsp)
.LBB66_3:
	movb	71(%rsp), %al
	andb	$1, %al
	movzbl	%al, %eax
	addq	$88, %rsp
	retq
	.seh_endproc

	.def	_ZN77_$LT$alloc..raw_vec..RawVec$LT$T$C$A$GT$$u20$as$u20$core..ops..drop..Drop$GT$4drop17h0e6addb9831d02d0E;
	.scl	3;
	.type	32;
	.endef
	.section	.text,"xr",one_only,_ZN77_$LT$alloc..raw_vec..RawVec$LT$T$C$A$GT$$u20$as$u20$core..ops..drop..Drop$GT$4drop17h0e6addb9831d02d0E
	.p2align	4, 0x90
_ZN77_$LT$alloc..raw_vec..RawVec$LT$T$C$A$GT$$u20$as$u20$core..ops..drop..Drop$GT$4drop17h0e6addb9831d02d0E:
.seh_proc _ZN77_$LT$alloc..raw_vec..RawVec$LT$T$C$A$GT$$u20$as$u20$core..ops..drop..Drop$GT$4drop17h0e6addb9831d02d0E
	subq	$72, %rsp
	.seh_stackalloc 72
	.seh_endprologue
	movq	%rcx, %rdx
	movq	%rdx, 40(%rsp)
	leaq	48(%rsp), %rcx
	callq	_ZN5alloc7raw_vec19RawVec$LT$T$C$A$GT$14current_memory17hdaa6a1741acc0516E
	movl	$1, %eax
	xorl	%ecx, %ecx
	cmpq	$0, 56(%rsp)
	cmoveq	%rcx, %rax
	cmpq	$1, %rax
	jne	.LBB67_2
	movq	40(%rsp), %rcx
	movq	48(%rsp), %rdx
	movq	56(%rsp), %r8
	movq	64(%rsp), %r9
	addq	$16, %rcx
	callq	_ZN63_$LT$alloc..alloc..Global$u20$as$u20$core..alloc..Allocator$GT$10deallocate17hd1f664c71a78aa50E
.LBB67_2:
	nop
	addq	$72, %rsp
	retq
	.seh_endproc

	.def	_ZN78_$LT$std..io..error..repr_bitpacked..Repr$u20$as$u20$core..ops..drop..Drop$GT$4drop17hc0d745cd94da2c43E;
	.scl	3;
	.type	32;
	.endef
	.section	.text,"xr",one_only,_ZN78_$LT$std..io..error..repr_bitpacked..Repr$u20$as$u20$core..ops..drop..Drop$GT$4drop17hc0d745cd94da2c43E
	.p2align	4, 0x90
_ZN78_$LT$std..io..error..repr_bitpacked..Repr$u20$as$u20$core..ops..drop..Drop$GT$4drop17hc0d745cd94da2c43E:
.seh_proc _ZN78_$LT$std..io..error..repr_bitpacked..Repr$u20$as$u20$core..ops..drop..Drop$GT$4drop17hc0d745cd94da2c43E
	subq	$56, %rsp
	.seh_stackalloc 56
	.seh_endprologue
	movq	(%rcx), %rdx
	leaq	40(%rsp), %rcx
	callq	_ZN3std2io5error14repr_bitpacked11decode_repr17h039d921aa33d1a92E
	leaq	40(%rsp), %rcx
	callq	_ZN4core3ptr101drop_in_place$LT$std..io..error..ErrorData$LT$alloc..boxed..Box$LT$std..io..error..Custom$GT$$GT$$GT$17h50b24542748dbd9cE
	nop
	addq	$56, %rsp
	retq
	.seh_endproc

	.def	_ZN78_$LT$std..io..error..repr_bitpacked..Repr$u20$as$u20$core..ops..drop..Drop$GT$4drop28_$u7b$$u7b$closure$u7d$$u7d$17hadc36682f66dfcf1E;
	.scl	3;
	.type	32;
	.endef
	.section	.text,"xr",one_only,_ZN78_$LT$std..io..error..repr_bitpacked..Repr$u20$as$u20$core..ops..drop..Drop$GT$4drop28_$u7b$$u7b$closure$u7d$$u7d$17hadc36682f66dfcf1E
	.p2align	4, 0x90
_ZN78_$LT$std..io..error..repr_bitpacked..Repr$u20$as$u20$core..ops..drop..Drop$GT$4drop28_$u7b$$u7b$closure$u7d$$u7d$17hadc36682f66dfcf1E:
.seh_proc _ZN78_$LT$std..io..error..repr_bitpacked..Repr$u20$as$u20$core..ops..drop..Drop$GT$4drop28_$u7b$$u7b$closure$u7d$$u7d$17hadc36682f66dfcf1E
	subq	$40, %rsp
	.seh_stackalloc 40
	.seh_endprologue
	movq	%rcx, 32(%rsp)
	jmp	.LBB69_1
.LBB69_1:
	movq	32(%rsp), %rcx
	callq	_ZN4core3ptr8non_null16NonNull$LT$T$GT$13new_unchecked18precondition_check17hac57592cae96c899E
	movq	32(%rsp), %rax
	addq	$40, %rsp
	retq
	.seh_endproc

	.def	_ZN80_$LT$core..str..pattern..StrSearcher$u20$as$u20$core..str..pattern..Searcher$GT$10next_match17he84aea9018330153E;
	.scl	3;
	.type	32;
	.endef
	.section	.text,"xr",one_only,_ZN80_$LT$core..str..pattern..StrSearcher$u20$as$u20$core..str..pattern..Searcher$GT$10next_match17he84aea9018330153E
	.p2align	4, 0x90
_ZN80_$LT$core..str..pattern..StrSearcher$u20$as$u20$core..str..pattern..Searcher$GT$10next_match17he84aea9018330153E:
.seh_proc _ZN80_$LT$core..str..pattern..StrSearcher$u20$as$u20$core..str..pattern..Searcher$GT$10next_match17he84aea9018330153E
	subq	$120, %rsp
	.seh_stackalloc 120
	.seh_endprologue
	movq	%rdx, 72(%rsp)
	movq	%rcx, 80(%rsp)
	movq	%rcx, 88(%rsp)
	cmpq	$0, (%rdx)
	jne	.LBB70_2
.LBB70_1:
	movq	72(%rsp), %rdx
	leaq	96(%rsp), %rcx
	callq	_ZN80_$LT$core..str..pattern..StrSearcher$u20$as$u20$core..str..pattern..Searcher$GT$4next17h9d141c5aa31e1d5bE
	movq	96(%rsp), %rax
	movq	%rax, 64(%rsp)
	testq	%rax, %rax
	je	.LBB70_4
	jmp	.LBB70_12
.LBB70_12:
	movq	64(%rsp), %rax
	subq	$1, %rax
	je	.LBB70_5
	jmp	.LBB70_13
.LBB70_13:
	jmp	.LBB70_6
.LBB70_2:
	movq	72(%rsp), %rax
	cmpq	$-1, 56(%rax)
	je	.LBB70_10
	jmp	.LBB70_9
	ud2
.LBB70_4:
	movq	80(%rsp), %rax
	movq	104(%rsp), %rdx
	movq	112(%rsp), %rcx
	movq	%rdx, 8(%rax)
	movq	%rcx, 16(%rax)
	movq	$1, (%rax)
	jmp	.LBB70_7
.LBB70_5:
	jmp	.LBB70_1
.LBB70_6:
	movq	80(%rsp), %rax
	movq	$0, (%rax)
.LBB70_7:
	jmp	.LBB70_8
.LBB70_8:
	movq	88(%rsp), %rax
	addq	$120, %rsp
	retq
.LBB70_9:
	movq	80(%rsp), %rcx
	movq	72(%rsp), %rax
	movq	%rax, %rdx
	addq	$8, %rdx
	movq	72(%rax), %r8
	movq	80(%rax), %r9
	movq	88(%rax), %r10
	movq	96(%rax), %rax
	xorl	%r11d, %r11d
	movq	%r10, 32(%rsp)
	movq	%rax, 40(%rsp)
	movl	$0, 48(%rsp)
	callq	_ZN4core3str7pattern14TwoWaySearcher4next17ha59cd64d55ffd0b6E
	jmp	.LBB70_11
.LBB70_10:
	movq	80(%rsp), %rcx
	movq	72(%rsp), %rax
	movq	%rax, %rdx
	addq	$8, %rdx
	movq	72(%rax), %r8
	movq	80(%rax), %r9
	movq	88(%rax), %r10
	movq	96(%rax), %rax
	movq	%r10, 32(%rsp)
	movq	%rax, 40(%rsp)
	movl	$1, 48(%rsp)
	callq	_ZN4core3str7pattern14TwoWaySearcher4next17ha59cd64d55ffd0b6E
.LBB70_11:
	jmp	.LBB70_8
	.seh_endproc

	.def	_ZN80_$LT$core..str..pattern..StrSearcher$u20$as$u20$core..str..pattern..Searcher$GT$4next17h9d141c5aa31e1d5bE;
	.scl	3;
	.type	32;
	.endef
	.section	.text,"xr",one_only,_ZN80_$LT$core..str..pattern..StrSearcher$u20$as$u20$core..str..pattern..Searcher$GT$4next17h9d141c5aa31e1d5bE
	.p2align	4, 0x90
_ZN80_$LT$core..str..pattern..StrSearcher$u20$as$u20$core..str..pattern..Searcher$GT$4next17h9d141c5aa31e1d5bE:
.seh_proc _ZN80_$LT$core..str..pattern..StrSearcher$u20$as$u20$core..str..pattern..Searcher$GT$4next17h9d141c5aa31e1d5bE
	subq	$248, %rsp
	.seh_stackalloc 248
	.seh_endprologue
	movq	%rdx, 128(%rsp)
	movq	%rcx, 136(%rsp)
	movq	%rcx, 144(%rsp)
	cmpq	$0, (%rdx)
	jne	.LBB71_2
	movq	128(%rsp), %rax
	testb	$1, 26(%rax)
	jne	.LBB71_4
	jmp	.LBB71_3
.LBB71_2:
	movq	128(%rsp), %rcx
	movq	40(%rcx), %rax
	cmpq	80(%rcx), %rax
	je	.LBB71_26
	jmp	.LBB71_25
.LBB71_3:
	movq	128(%rsp), %rax
	movb	24(%rax), %cl
	movb	%cl, 103(%rsp)
	movb	24(%rax), %cl
	xorb	$-1, %cl
	andb	$1, %cl
	movb	%cl, 24(%rax)
	movq	8(%rax), %rcx
	movq	%rcx, 104(%rsp)
	movq	72(%rax), %rdx
	movq	%rdx, 112(%rsp)
	movq	80(%rax), %r8
	movq	%r8, 120(%rsp)
	callq	_ZN4core3str6traits112_$LT$impl$u20$core..slice..index..SliceIndex$LT$str$GT$$u20$for$u20$core..ops..range..RangeFrom$LT$usize$GT$$GT$3get17h15271a3941f7002dE
	movq	%rax, 224(%rsp)
	movq	%rdx, 232(%rsp)
	movq	224(%rsp), %rdx
	movl	$1, %eax
	xorl	%ecx, %ecx
	cmpq	$0, %rdx
	cmoveq	%rcx, %rax
	cmpq	$0, %rax
	je	.LBB71_5
	jmp	.LBB71_6
.LBB71_4:
	movq	136(%rsp), %rax
	movq	$2, (%rax)
	jmp	.LBB71_24
.LBB71_5:
	movq	120(%rsp), %r9
	movq	104(%rsp), %r8
	movq	112(%rsp), %rcx
	leaq	__unnamed_23(%rip), %rdx
	movq	%rsp, %rax
	movq	%rdx, 32(%rax)
	movq	%r9, %rdx
	callq	_ZN4core3str16slice_error_fail17hc1532a54e4d483edE
.LBB71_6:
	movq	224(%rsp), %rcx
	movq	%rcx, %rax
	addq	232(%rsp), %rax
	movq	%rcx, 160(%rsp)
	movq	%rax, 168(%rsp)
	leaq	160(%rsp), %rcx
	callq	_ZN4core3str11validations15next_code_point17h8c11de47996a23bfE
	movl	%eax, 240(%rsp)
	movl	%edx, 244(%rsp)
	movl	240(%rsp), %eax
	cmpq	$0, %rax
	jne	.LBB71_8
	movb	103(%rsp), %al
	testb	$1, %al
	jne	.LBB71_10
	jmp	.LBB71_9
.LBB71_8:
	movl	244(%rsp), %eax
	movl	%eax, 96(%rsp)
	jmp	.LBB71_12
.LBB71_9:
	movq	136(%rsp), %rax
	movq	128(%rsp), %rcx
	movb	$1, 26(%rcx)
	movq	$2, (%rax)
	jmp	.LBB71_11
.LBB71_10:
	movq	136(%rsp), %rax
	movq	104(%rsp), %rcx
	movq	%rcx, 8(%rax)
	movq	%rcx, 16(%rax)
	movq	$0, (%rax)
.LBB71_11:
	jmp	.LBB71_24
.LBB71_12:
	movl	96(%rsp), %ecx
	callq	_ZN4core4char7convert18from_u32_unchecked18precondition_check17h7de38b466df3c714E
	movb	103(%rsp), %al
	movl	96(%rsp), %ecx
	movl	%ecx, 156(%rsp)
	testb	$1, %al
	jne	.LBB71_10
	movl	156(%rsp), %eax
	movl	%eax, 92(%rsp)
	cmpl	$128, %eax
	jb	.LBB71_16
	movl	92(%rsp), %eax
	cmpl	$2048, %eax
	jb	.LBB71_18
	jmp	.LBB71_17
.LBB71_16:
	movq	$1, 176(%rsp)
	jmp	.LBB71_23
.LBB71_17:
	movl	92(%rsp), %eax
	cmpl	$65536, %eax
	jb	.LBB71_20
	jmp	.LBB71_19
.LBB71_18:
	movq	$2, 176(%rsp)
	jmp	.LBB71_22
.LBB71_19:
	movq	$4, 176(%rsp)
	jmp	.LBB71_21
.LBB71_20:
	movq	$3, 176(%rsp)
.LBB71_21:
	jmp	.LBB71_22
.LBB71_22:
	jmp	.LBB71_23
.LBB71_23:
	movq	136(%rsp), %rax
	movq	104(%rsp), %rdx
	movq	128(%rsp), %rcx
	movq	8(%rcx), %r8
	addq	176(%rsp), %r8
	movq	%r8, 8(%rcx)
	movq	8(%rcx), %rcx
	movq	%rdx, 8(%rax)
	movq	%rcx, 16(%rax)
	movq	$1, (%rax)
	jmp	.LBB71_11
.LBB71_24:
	movq	144(%rsp), %rax
	addq	$248, %rsp
	retq
.LBB71_25:
	movq	128(%rsp), %rax
	cmpq	$-1, 56(%rax)
	sete	%r11b
	movq	%rax, %rdx
	addq	$8, %rdx
	movq	72(%rax), %r8
	movq	80(%rax), %r9
	movq	88(%rax), %rcx
	movq	96(%rax), %r10
	andb	$1, %r11b
	movq	%rsp, %rax
	movb	%r11b, 48(%rax)
	movq	%r10, 40(%rax)
	movq	%rcx, 32(%rax)
	leaq	184(%rsp), %rcx
	callq	_ZN4core3str7pattern14TwoWaySearcher4next17h5cdd046cf5e86752E
	cmpq	$1, 184(%rsp)
	je	.LBB71_27
	jmp	.LBB71_28
.LBB71_26:
	movq	136(%rsp), %rax
	movq	$2, (%rax)
	jmp	.LBB71_24
.LBB71_27:
	movq	192(%rsp), %rax
	movq	%rax, 80(%rsp)
	movq	200(%rsp), %rax
	movq	%rax, 208(%rsp)
	jmp	.LBB71_29
.LBB71_28:
	movq	136(%rsp), %rax
	movq	184(%rsp), %rcx
	movq	%rcx, (%rax)
	movq	192(%rsp), %rcx
	movq	%rcx, 8(%rax)
	movq	200(%rsp), %rcx
	movq	%rcx, 16(%rax)
	jmp	.LBB71_37
.LBB71_29:
	movq	128(%rsp), %rax
	movq	72(%rax), %rcx
	movq	%rcx, 56(%rsp)
	movq	80(%rax), %rax
	movq	%rax, 64(%rsp)
	movq	208(%rsp), %rax
	movq	%rax, 72(%rsp)
	cmpq	$0, %rax
	jne	.LBB71_31
	jmp	.LBB71_32
.LBB71_31:
	movq	72(%rsp), %rax
	movq	64(%rsp), %rcx
	cmpq	%rcx, %rax
	jb	.LBB71_34
	jmp	.LBB71_33
.LBB71_32:
	movq	128(%rsp), %rax
	movq	208(%rsp), %rcx
	movq	40(%rax), %rdx
	callq	_ZN4core3cmp6max_by17h5eb3d25a27e456a3E
	movq	128(%rsp), %rcx
	movq	80(%rsp), %rdx
	movq	%rax, %r8
	movq	136(%rsp), %rax
	movq	%r8, 40(%rcx)
	movq	208(%rsp), %rcx
	movq	%rdx, 8(%rax)
	movq	%rcx, 16(%rax)
	movq	$1, (%rax)
	jmp	.LBB71_37
.LBB71_33:
	movq	72(%rsp), %rax
	movq	64(%rsp), %rcx
	cmpq	%rcx, %rax
	sete	%al
	andb	$1, %al
	movb	%al, 223(%rsp)
	jmp	.LBB71_35
.LBB71_34:
	movq	56(%rsp), %rax
	movq	72(%rsp), %rcx
	cmpb	$-64, (%rax,%rcx)
	setge	%al
	andb	$1, %al
	movb	%al, 223(%rsp)
.LBB71_35:
	testb	$1, 223(%rsp)
	jne	.LBB71_32
	movq	208(%rsp), %rax
	addq	$1, %rax
	movq	%rax, 208(%rsp)
	jmp	.LBB71_29
.LBB71_37:
	jmp	.LBB71_24
	.seh_endproc

	.def	_ZN80_$LT$core..str..pattern..StrSearcher$u20$as$u20$core..str..pattern..Searcher$GT$8haystack17ha915661fcf93cca3E;
	.scl	3;
	.type	32;
	.endef
	.section	.text,"xr",one_only,_ZN80_$LT$core..str..pattern..StrSearcher$u20$as$u20$core..str..pattern..Searcher$GT$8haystack17ha915661fcf93cca3E
	.p2align	4, 0x90
_ZN80_$LT$core..str..pattern..StrSearcher$u20$as$u20$core..str..pattern..Searcher$GT$8haystack17ha915661fcf93cca3E:
	movq	72(%rcx), %rax
	movq	80(%rcx), %rdx
	retq

	.def	_ZN84_$LT$core..str..pattern..MatchOnly$u20$as$u20$core..str..pattern..TwoWayStrategy$GT$16use_early_reject17he118971195dc4a95E;
	.scl	3;
	.type	32;
	.endef
	.section	.text,"xr",one_only,_ZN84_$LT$core..str..pattern..MatchOnly$u20$as$u20$core..str..pattern..TwoWayStrategy$GT$16use_early_reject17he118971195dc4a95E
	.p2align	4, 0x90
_ZN84_$LT$core..str..pattern..MatchOnly$u20$as$u20$core..str..pattern..TwoWayStrategy$GT$16use_early_reject17he118971195dc4a95E:
	xorl	%eax, %eax
	andb	$1, %al
	movzbl	%al, %eax
	retq

	.def	_ZN84_$LT$core..str..pattern..MatchOnly$u20$as$u20$core..str..pattern..TwoWayStrategy$GT$8matching17h873d99d94be8730cE;
	.scl	3;
	.type	32;
	.endef
	.section	.text,"xr",one_only,_ZN84_$LT$core..str..pattern..MatchOnly$u20$as$u20$core..str..pattern..TwoWayStrategy$GT$8matching17h873d99d94be8730cE
	.p2align	4, 0x90
_ZN84_$LT$core..str..pattern..MatchOnly$u20$as$u20$core..str..pattern..TwoWayStrategy$GT$8matching17h873d99d94be8730cE:
	movq	%rcx, %rax
	movq	%rdx, 8(%rcx)
	movq	%r8, 16(%rcx)
	movq	$1, (%rcx)
	retq

	.def	_ZN84_$LT$core..str..pattern..MatchOnly$u20$as$u20$core..str..pattern..TwoWayStrategy$GT$9rejecting17h7e7c517e498d55e7E;
	.scl	3;
	.type	32;
	.endef
	.section	.text,"xr",one_only,_ZN84_$LT$core..str..pattern..MatchOnly$u20$as$u20$core..str..pattern..TwoWayStrategy$GT$9rejecting17h7e7c517e498d55e7E
	.p2align	4, 0x90
_ZN84_$LT$core..str..pattern..MatchOnly$u20$as$u20$core..str..pattern..TwoWayStrategy$GT$9rejecting17h7e7c517e498d55e7E:
	movq	%rcx, %rax
	movq	$0, (%rcx)
	retq

	.def	_ZN89_$LT$core..str..pattern..RejectAndMatch$u20$as$u20$core..str..pattern..TwoWayStrategy$GT$16use_early_reject17h9288ce0f005806a3E;
	.scl	3;
	.type	32;
	.endef
	.section	.text,"xr",one_only,_ZN89_$LT$core..str..pattern..RejectAndMatch$u20$as$u20$core..str..pattern..TwoWayStrategy$GT$16use_early_reject17h9288ce0f005806a3E
	.p2align	4, 0x90
_ZN89_$LT$core..str..pattern..RejectAndMatch$u20$as$u20$core..str..pattern..TwoWayStrategy$GT$16use_early_reject17h9288ce0f005806a3E:
	movb	$1, %al
	andb	$1, %al
	movzbl	%al, %eax
	retq

	.def	_ZN89_$LT$core..str..pattern..RejectAndMatch$u20$as$u20$core..str..pattern..TwoWayStrategy$GT$8matching17hb39184fde8e7f861E;
	.scl	3;
	.type	32;
	.endef
	.section	.text,"xr",one_only,_ZN89_$LT$core..str..pattern..RejectAndMatch$u20$as$u20$core..str..pattern..TwoWayStrategy$GT$8matching17hb39184fde8e7f861E
	.p2align	4, 0x90
_ZN89_$LT$core..str..pattern..RejectAndMatch$u20$as$u20$core..str..pattern..TwoWayStrategy$GT$8matching17hb39184fde8e7f861E:
	movq	%rcx, %rax
	movq	%rdx, 8(%rcx)
	movq	%r8, 16(%rcx)
	movq	$0, (%rcx)
	retq

	.def	_ZN89_$LT$core..str..pattern..RejectAndMatch$u20$as$u20$core..str..pattern..TwoWayStrategy$GT$9rejecting17ha016e090d6770bb4E;
	.scl	3;
	.type	32;
	.endef
	.section	.text,"xr",one_only,_ZN89_$LT$core..str..pattern..RejectAndMatch$u20$as$u20$core..str..pattern..TwoWayStrategy$GT$9rejecting17ha016e090d6770bb4E
	.p2align	4, 0x90
_ZN89_$LT$core..str..pattern..RejectAndMatch$u20$as$u20$core..str..pattern..TwoWayStrategy$GT$9rejecting17ha016e090d6770bb4E:
	movq	%rcx, %rax
	movq	%rdx, 8(%rcx)
	movq	%r8, 16(%rcx)
	movq	$1, (%rcx)
	retq

	.def	_ZN90_$LT$core..str..iter..Split$LT$P$GT$$u20$as$u20$core..iter..traits..iterator..Iterator$GT$4next17h66ef74f4540ba18eE;
	.scl	3;
	.type	32;
	.endef
	.section	.text,"xr",one_only,_ZN90_$LT$core..str..iter..Split$LT$P$GT$$u20$as$u20$core..iter..traits..iterator..Iterator$GT$4next17h66ef74f4540ba18eE
	.p2align	4, 0x90
_ZN90_$LT$core..str..iter..Split$LT$P$GT$$u20$as$u20$core..iter..traits..iterator..Iterator$GT$4next17h66ef74f4540ba18eE:
.seh_proc _ZN90_$LT$core..str..iter..Split$LT$P$GT$$u20$as$u20$core..iter..traits..iterator..Iterator$GT$4next17h66ef74f4540ba18eE
	subq	$40, %rsp
	.seh_stackalloc 40
	.seh_endprologue
	callq	_ZN4core3str4iter22SplitInternal$LT$P$GT$4next17he1a2dba093e713efE
	nop
	addq	$40, %rsp
	retq
	.seh_endproc

	.def	_ZN91_$LT$core..slice..iter..Iter$LT$T$GT$$u20$as$u20$core..iter..traits..iterator..Iterator$GT$4next17h146495f6670ebe93E;
	.scl	3;
	.type	32;
	.endef
	.section	.text,"xr",one_only,_ZN91_$LT$core..slice..iter..Iter$LT$T$GT$$u20$as$u20$core..iter..traits..iterator..Iterator$GT$4next17h146495f6670ebe93E
	.p2align	4, 0x90
_ZN91_$LT$core..slice..iter..Iter$LT$T$GT$$u20$as$u20$core..iter..traits..iterator..Iterator$GT$4next17h146495f6670ebe93E:
.seh_proc _ZN91_$LT$core..slice..iter..Iter$LT$T$GT$$u20$as$u20$core..iter..traits..iterator..Iterator$GT$4next17h146495f6670ebe93E
	subq	$40, %rsp
	.seh_stackalloc 40
	.seh_endprologue
	movq	%rcx, (%rsp)
	movq	(%rsp), %rax
	movq	8(%rax), %rcx
	movq	%rcx, 24(%rsp)
	movq	(%rax), %rax
	cmpq	24(%rsp), %rax
	sete	%al
	andb	$1, %al
	movb	%al, 23(%rsp)
	testb	$1, 23(%rsp)
	jne	.LBB80_4
	movq	(%rsp), %rax
	movq	(%rax), %rax
	movq	%rax, 32(%rsp)
	jmp	.LBB80_5
.LBB80_4:
	movq	$0, 8(%rsp)
	jmp	.LBB80_7
.LBB80_5:
	movq	(%rsp), %rax
	movq	(%rax), %rcx
	addq	$1, %rcx
	movq	%rcx, (%rax)
	movq	32(%rsp), %rax
	movq	%rax, 8(%rsp)
.LBB80_7:
	movq	8(%rsp), %rax
	addq	$40, %rsp
	retq
	.seh_endproc

	.def	_ZN91_$LT$core..slice..iter..Iter$LT$T$GT$$u20$as$u20$core..iter..traits..iterator..Iterator$GT$4next17h469e898cf877d181E;
	.scl	3;
	.type	32;
	.endef
	.section	.text,"xr",one_only,_ZN91_$LT$core..slice..iter..Iter$LT$T$GT$$u20$as$u20$core..iter..traits..iterator..Iterator$GT$4next17h469e898cf877d181E
	.p2align	4, 0x90
_ZN91_$LT$core..slice..iter..Iter$LT$T$GT$$u20$as$u20$core..iter..traits..iterator..Iterator$GT$4next17h469e898cf877d181E:
.seh_proc _ZN91_$LT$core..slice..iter..Iter$LT$T$GT$$u20$as$u20$core..iter..traits..iterator..Iterator$GT$4next17h469e898cf877d181E
	subq	$40, %rsp
	.seh_stackalloc 40
	.seh_endprologue
	movq	%rcx, (%rsp)
	movq	(%rsp), %rax
	movq	8(%rax), %rcx
	movq	%rcx, 24(%rsp)
	movq	(%rax), %rax
	cmpq	24(%rsp), %rax
	sete	%al
	andb	$1, %al
	movb	%al, 23(%rsp)
	testb	$1, 23(%rsp)
	jne	.LBB81_4
	movq	(%rsp), %rax
	movq	(%rax), %rax
	movq	%rax, 32(%rsp)
	jmp	.LBB81_5
.LBB81_4:
	movq	$0, 8(%rsp)
	jmp	.LBB81_7
.LBB81_5:
	movq	(%rsp), %rax
	movq	(%rax), %rcx
	addq	$4, %rcx
	movq	%rcx, (%rax)
	movq	32(%rsp), %rax
	movq	%rax, 8(%rsp)
.LBB81_7:
	movq	8(%rsp), %rax
	addq	$40, %rsp
	retq
	.seh_endproc

	.def	_ZN4main4main17hfb7f0a93cf431d44E;
	.scl	3;
	.type	32;
	.endef
	.section	.text,"xr",one_only,_ZN4main4main17hfb7f0a93cf431d44E
	.p2align	4, 0x90
_ZN4main4main17hfb7f0a93cf431d44E:
.Lfunc_begin10:
.seh_proc _ZN4main4main17hfb7f0a93cf431d44E
	.seh_handler __CxxFrameHandler3, @unwind, @except
	pushq	%rbp
	.seh_pushreg %rbp
	subq	$1440, %rsp
	.seh_stackalloc 1440
	leaq	128(%rsp), %rbp
	.seh_setframe %rbp, 128
	.seh_endprologue
	movq	$-2, 1304(%rbp)
	leaq	__unnamed_24(%rip), %rdx
	leaq	472(%rbp), %rcx
	movq	%rcx, 416(%rbp)
	movl	$9, %r8d
	callq	_ZN3std2fs14read_to_string17h9bb73c25a39c9748E
	movq	416(%rbp), %rdx
	leaq	__unnamed_25(%rip), %rcx
	movq	%rsp, %rax
	movq	%rcx, 32(%rax)
	leaq	__unnamed_26(%rip), %r8
	leaq	448(%rbp), %rcx
	movq	%rcx, 424(%rbp)
	movl	$19, %r9d
	callq	_ZN4core6result19Result$LT$T$C$E$GT$6expect17hd06dc18a21a087d5E
	movq	424(%rbp), %rcx
.Ltmp28:
	callq	_ZN65_$LT$alloc..string..String$u20$as$u20$core..ops..deref..Deref$GT$5deref17h18f77accc55ca1fcE
.Ltmp29:
	movq	%rdx, 432(%rbp)
	movq	%rax, 440(%rbp)
	jmp	.LBB82_2
.LBB82_2:
.Ltmp30:
	movq	432(%rbp), %r8
	movq	440(%rbp), %rdx
	movq	%rsp, %rax
	movq	$0, 32(%rax)
	leaq	496(%rbp), %rcx
	movl	$1, %r9d
	callq	_ZN4core3str21_$LT$impl$u20$str$GT$5split17h4346e039f1a32d1cE
.Ltmp31:
	jmp	.LBB82_3
.LBB82_3:
	xorps	%xmm0, %xmm0
	movaps	%xmm0, 704(%rbp)
	movaps	%xmm0, 688(%rbp)
	movaps	%xmm0, 672(%rbp)
	movaps	%xmm0, 656(%rbp)
	movaps	%xmm0, 640(%rbp)
	movaps	%xmm0, 624(%rbp)
	movq	$0, 720(%rbp)
.Ltmp32:
	leaq	728(%rbp), %rcx
	leaq	496(%rbp), %rdx
	callq	_ZN63_$LT$I$u20$as$u20$core..iter..traits..collect..IntoIterator$GT$9into_iter17h4d83a55d4da47fd1E
.Ltmp33:
	jmp	.LBB82_4
.LBB82_4:
	leaq	856(%rbp), %rcx
	leaq	728(%rbp), %rdx
	movl	$128, %r8d
	callq	memcpy
.LBB82_5:
.Ltmp34:
	leaq	856(%rbp), %rcx
	callq	_ZN90_$LT$core..str..iter..Split$LT$P$GT$$u20$as$u20$core..iter..traits..iterator..Iterator$GT$4next17h66ef74f4540ba18eE
.Ltmp35:
	movq	%rdx, 400(%rbp)
	movq	%rax, 408(%rbp)
	jmp	.LBB82_6
.LBB82_6:
	movq	400(%rbp), %rax
	movq	408(%rbp), %rcx
	movq	%rcx, 984(%rbp)
	movq	%rax, 992(%rbp)
	movq	984(%rbp), %rax
	cmpq	$0, %rax
	sete	%al
	testb	$1, %al
	jne	.LBB82_7
	jmp	.LBB82_8
.LBB82_7:
.Ltmp244:
	leaq	624(%rbp), %rcx
	movl	$26, %edx
	callq	_ZN4core5slice29_$LT$impl$u20$$u5b$T$u5d$$GT$4iter17h192027fd5d104fb2E
.Ltmp245:
	movq	%rdx, 384(%rbp)
	movq	%rax, 392(%rbp)
	jmp	.LBB82_9
.LBB82_8:
	movq	984(%rbp), %rcx
	movq	%rcx, 360(%rbp)
	movq	992(%rbp), %rdx
	movq	%rdx, 368(%rbp)
.Ltmp36:
	leaq	__unnamed_27(%rip), %r8
	movl	$1, %r9d
	callq	_ZN4core3str6traits54_$LT$impl$u20$core..cmp..PartialEq$u20$for$u20$str$GT$2eq17hd824c456cd23700cE
.Ltmp37:
	movb	%al, 383(%rbp)
	jmp	.LBB82_23
.LBB82_9:
.Ltmp246:
	movq	384(%rbp), %r8
	movq	392(%rbp), %rdx
	leaq	1024(%rbp), %rcx
	callq	_ZN4core4iter6traits8iterator8Iterator9enumerate17hd3e5bc9d5d57b7e1E
.Ltmp247:
	jmp	.LBB82_10
.LBB82_10:
.Ltmp248:
	leaq	1000(%rbp), %rcx
	leaq	1024(%rbp), %rdx
	callq	_ZN63_$LT$I$u20$as$u20$core..iter..traits..collect..IntoIterator$GT$9into_iter17h1b2a6d2727b6d2bbE
.Ltmp249:
	jmp	.LBB82_11
.LBB82_11:
	movq	1000(%rbp), %rax
	movq	%rax, 1048(%rbp)
	movq	1008(%rbp), %rax
	movq	%rax, 1056(%rbp)
	movq	1016(%rbp), %rax
	movq	%rax, 1064(%rbp)
.LBB82_12:
.Ltmp250:
	leaq	1048(%rbp), %rcx
	callq	_ZN110_$LT$core..iter..adapters..enumerate..Enumerate$LT$I$GT$$u20$as$u20$core..iter..traits..iterator..Iterator$GT$4next17hcd31c0442d70263eE
.Ltmp251:
	movq	%rdx, 344(%rbp)
	movq	%rax, 352(%rbp)
	jmp	.LBB82_13
.LBB82_13:
	movq	344(%rbp), %rax
	movq	352(%rbp), %rcx
	movq	%rcx, 1072(%rbp)
	movq	%rax, 1080(%rbp)
	movq	1080(%rbp), %rax
	cmpq	$0, %rax
	sete	%al
	testb	$1, %al
	jne	.LBB82_14
	jmp	.LBB82_15
.LBB82_14:
	leaq	448(%rbp), %rcx
	callq	_ZN4core3ptr42drop_in_place$LT$alloc..string..String$GT$17h8632e628fd1a4f71E
	nop
	addq	$1440, %rsp
	popq	%rbp
	retq
.LBB82_15:
	movq	1072(%rbp), %rax
	movq	%rax, 328(%rbp)
	movq	1080(%rbp), %rcx
	movq	%rcx, 1088(%rbp)
	addb	$97, %al
	movb	%al, 343(%rbp)
	setb	%al
	testb	$1, %al
	jne	.LBB82_17
	movq	328(%rbp), %rax
	movb	343(%rbp), %cl
	movzbl	%cl, %ecx
	movl	%ecx, 1096(%rbp)
	addb	$65, %al
	movb	%al, 327(%rbp)
	setb	%al
	testb	$1, %al
	jne	.LBB82_20
	jmp	.LBB82_19
.LBB82_17:
.Ltmp258:
	leaq	__unnamed_28(%rip), %rcx
	callq	_ZN4core9panicking11panic_const24panic_const_add_overflow17he356f8cd7e4debd3E
.Ltmp259:
	jmp	.LBB82_18
.LBB82_18:
	ud2
.LBB82_19:
	movb	327(%rbp), %al
	movzbl	%al, %eax
	movl	%eax, 1100(%rbp)
	leaq	1096(%rbp), %rax
	movq	%rax, 1272(%rbp)
	leaq	_ZN43_$LT$char$u20$as$u20$core..fmt..Display$GT$3fmt17hcb30b1b8966ff1a1E(%rip), %rax
	movq	%rax, 1280(%rbp)
	movups	1272(%rbp), %xmm0
	movaps	%xmm0, 1200(%rbp)
	leaq	1100(%rbp), %rcx
	movq	%rcx, 1256(%rbp)
	movq	%rax, 1264(%rbp)
	movups	1256(%rbp), %xmm0
	movaps	%xmm0, 1216(%rbp)
	leaq	1088(%rbp), %rax
	movq	%rax, 1288(%rbp)
	leaq	_ZN44_$LT$$RF$T$u20$as$u20$core..fmt..Display$GT$3fmt17hdadb0ec942538df5E(%rip), %rax
	movq	%rax, 1296(%rbp)
	movups	1288(%rbp), %xmm0
	movaps	%xmm0, 1232(%rbp)
	movaps	1200(%rbp), %xmm0
	movaps	%xmm0, 1152(%rbp)
	movaps	1216(%rbp), %xmm0
	movups	%xmm0, 1168(%rbp)
	movaps	1232(%rbp), %xmm0
	movups	%xmm0, 1184(%rbp)
.Ltmp252:
	leaq	__unnamed_29(%rip), %rdx
	leaq	1104(%rbp), %rcx
	leaq	1152(%rbp), %r8
	callq	_ZN4core3fmt9Arguments6new_v117h5319793f063a8c9dE
.Ltmp253:
	jmp	.LBB82_21
.LBB82_20:
.Ltmp256:
	leaq	__unnamed_30(%rip), %rcx
	callq	_ZN4core9panicking11panic_const24panic_const_add_overflow17he356f8cd7e4debd3E
.Ltmp257:
	jmp	.LBB82_18
.LBB82_21:
.Ltmp254:
	leaq	1104(%rbp), %rcx
	callq	_ZN3std2io5stdio6_print17hbefe17855de56c5cE
.Ltmp255:
	jmp	.LBB82_22
.LBB82_22:
	jmp	.LBB82_12
.LBB82_23:
	movb	383(%rbp), %al
	testb	$1, %al
	jne	.LBB82_25
	jmp	.LBB82_24
.LBB82_24:
.Ltmp38:
	movq	368(%rbp), %rdx
	movq	360(%rbp), %rcx
	leaq	__unnamed_31(%rip), %r8
	movl	$1, %r9d
	callq	_ZN4core3str6traits54_$LT$impl$u20$core..cmp..PartialEq$u20$for$u20$str$GT$2eq17hd824c456cd23700cE
.Ltmp39:
	movb	%al, 326(%rbp)
	jmp	.LBB82_26
.LBB82_25:
	movl	624(%rbp), %eax
	incl	%eax
	movl	%eax, 320(%rbp)
	seto	%al
	jo	.LBB82_281
	jmp	.LBB82_280
.LBB82_26:
	movb	326(%rbp), %al
	testb	$1, %al
	jne	.LBB82_28
	jmp	.LBB82_27
.LBB82_27:
.Ltmp40:
	movq	368(%rbp), %rdx
	movq	360(%rbp), %rcx
	leaq	__unnamed_32(%rip), %r8
	movl	$1, %r9d
	callq	_ZN4core3str6traits54_$LT$impl$u20$core..cmp..PartialEq$u20$for$u20$str$GT$2eq17hd824c456cd23700cE
.Ltmp41:
	movb	%al, 319(%rbp)
	jmp	.LBB82_29
.LBB82_28:
	movl	628(%rbp), %eax
	incl	%eax
	movl	%eax, 312(%rbp)
	seto	%al
	jo	.LBB82_279
	jmp	.LBB82_278
.LBB82_29:
	movb	319(%rbp), %al
	testb	$1, %al
	jne	.LBB82_31
	jmp	.LBB82_30
.LBB82_30:
.Ltmp42:
	movq	368(%rbp), %rdx
	movq	360(%rbp), %rcx
	leaq	__unnamed_33(%rip), %r8
	movl	$1, %r9d
	callq	_ZN4core3str6traits54_$LT$impl$u20$core..cmp..PartialEq$u20$for$u20$str$GT$2eq17hd824c456cd23700cE
.Ltmp43:
	movb	%al, 311(%rbp)
	jmp	.LBB82_32
.LBB82_31:
	movl	632(%rbp), %eax
	incl	%eax
	movl	%eax, 304(%rbp)
	seto	%al
	jo	.LBB82_277
	jmp	.LBB82_276
.LBB82_32:
	movb	311(%rbp), %al
	testb	$1, %al
	jne	.LBB82_34
	jmp	.LBB82_33
.LBB82_33:
.Ltmp44:
	movq	368(%rbp), %rdx
	movq	360(%rbp), %rcx
	leaq	__unnamed_34(%rip), %r8
	movl	$1, %r9d
	callq	_ZN4core3str6traits54_$LT$impl$u20$core..cmp..PartialEq$u20$for$u20$str$GT$2eq17hd824c456cd23700cE
.Ltmp45:
	movb	%al, 303(%rbp)
	jmp	.LBB82_35
.LBB82_34:
	movl	636(%rbp), %eax
	incl	%eax
	movl	%eax, 296(%rbp)
	seto	%al
	jo	.LBB82_275
	jmp	.LBB82_274
.LBB82_35:
	movb	303(%rbp), %al
	testb	$1, %al
	jne	.LBB82_37
	jmp	.LBB82_36
.LBB82_36:
.Ltmp46:
	movq	368(%rbp), %rdx
	movq	360(%rbp), %rcx
	leaq	__unnamed_35(%rip), %r8
	movl	$1, %r9d
	callq	_ZN4core3str6traits54_$LT$impl$u20$core..cmp..PartialEq$u20$for$u20$str$GT$2eq17hd824c456cd23700cE
.Ltmp47:
	movb	%al, 295(%rbp)
	jmp	.LBB82_38
.LBB82_37:
	movl	640(%rbp), %eax
	incl	%eax
	movl	%eax, 288(%rbp)
	seto	%al
	jo	.LBB82_273
	jmp	.LBB82_272
.LBB82_38:
	movb	295(%rbp), %al
	testb	$1, %al
	jne	.LBB82_40
	jmp	.LBB82_39
.LBB82_39:
.Ltmp48:
	movq	368(%rbp), %rdx
	movq	360(%rbp), %rcx
	leaq	__unnamed_36(%rip), %r8
	movl	$1, %r9d
	callq	_ZN4core3str6traits54_$LT$impl$u20$core..cmp..PartialEq$u20$for$u20$str$GT$2eq17hd824c456cd23700cE
.Ltmp49:
	movb	%al, 287(%rbp)
	jmp	.LBB82_41
.LBB82_40:
	movl	644(%rbp), %eax
	incl	%eax
	movl	%eax, 280(%rbp)
	seto	%al
	jo	.LBB82_271
	jmp	.LBB82_270
.LBB82_41:
	movb	287(%rbp), %al
	testb	$1, %al
	jne	.LBB82_43
	jmp	.LBB82_42
.LBB82_42:
.Ltmp50:
	movq	368(%rbp), %rdx
	movq	360(%rbp), %rcx
	leaq	__unnamed_37(%rip), %r8
	movl	$1, %r9d
	callq	_ZN4core3str6traits54_$LT$impl$u20$core..cmp..PartialEq$u20$for$u20$str$GT$2eq17hd824c456cd23700cE
.Ltmp51:
	movb	%al, 279(%rbp)
	jmp	.LBB82_44
.LBB82_43:
	movl	648(%rbp), %eax
	incl	%eax
	movl	%eax, 272(%rbp)
	seto	%al
	jo	.LBB82_269
	jmp	.LBB82_268
.LBB82_44:
	movb	279(%rbp), %al
	testb	$1, %al
	jne	.LBB82_46
	jmp	.LBB82_45
.LBB82_45:
.Ltmp52:
	movq	368(%rbp), %rdx
	movq	360(%rbp), %rcx
	leaq	__unnamed_38(%rip), %r8
	movl	$1, %r9d
	callq	_ZN4core3str6traits54_$LT$impl$u20$core..cmp..PartialEq$u20$for$u20$str$GT$2eq17hd824c456cd23700cE
.Ltmp53:
	movb	%al, 271(%rbp)
	jmp	.LBB82_47
.LBB82_46:
	movl	652(%rbp), %eax
	incl	%eax
	movl	%eax, 264(%rbp)
	seto	%al
	jo	.LBB82_267
	jmp	.LBB82_266
.LBB82_47:
	movb	271(%rbp), %al
	testb	$1, %al
	jne	.LBB82_49
	jmp	.LBB82_48
.LBB82_48:
.Ltmp54:
	movq	368(%rbp), %rdx
	movq	360(%rbp), %rcx
	leaq	__unnamed_39(%rip), %r8
	movl	$1, %r9d
	callq	_ZN4core3str6traits54_$LT$impl$u20$core..cmp..PartialEq$u20$for$u20$str$GT$2eq17hd824c456cd23700cE
.Ltmp55:
	movb	%al, 263(%rbp)
	jmp	.LBB82_50
.LBB82_49:
	movl	656(%rbp), %eax
	incl	%eax
	movl	%eax, 256(%rbp)
	seto	%al
	jo	.LBB82_265
	jmp	.LBB82_264
.LBB82_50:
	movb	263(%rbp), %al
	testb	$1, %al
	jne	.LBB82_52
	jmp	.LBB82_51
.LBB82_51:
.Ltmp56:
	movq	368(%rbp), %rdx
	movq	360(%rbp), %rcx
	leaq	__unnamed_40(%rip), %r8
	movl	$1, %r9d
	callq	_ZN4core3str6traits54_$LT$impl$u20$core..cmp..PartialEq$u20$for$u20$str$GT$2eq17hd824c456cd23700cE
.Ltmp57:
	movb	%al, 255(%rbp)
	jmp	.LBB82_53
.LBB82_52:
	movl	660(%rbp), %eax
	incl	%eax
	movl	%eax, 248(%rbp)
	seto	%al
	jo	.LBB82_263
	jmp	.LBB82_262
.LBB82_53:
	movb	255(%rbp), %al
	testb	$1, %al
	jne	.LBB82_55
	jmp	.LBB82_54
.LBB82_54:
.Ltmp58:
	movq	368(%rbp), %rdx
	movq	360(%rbp), %rcx
	leaq	__unnamed_41(%rip), %r8
	movl	$1, %r9d
	callq	_ZN4core3str6traits54_$LT$impl$u20$core..cmp..PartialEq$u20$for$u20$str$GT$2eq17hd824c456cd23700cE
.Ltmp59:
	movb	%al, 247(%rbp)
	jmp	.LBB82_56
.LBB82_55:
	movl	664(%rbp), %eax
	incl	%eax
	movl	%eax, 240(%rbp)
	seto	%al
	jo	.LBB82_261
	jmp	.LBB82_260
.LBB82_56:
	movb	247(%rbp), %al
	testb	$1, %al
	jne	.LBB82_58
	jmp	.LBB82_57
.LBB82_57:
.Ltmp60:
	movq	368(%rbp), %rdx
	movq	360(%rbp), %rcx
	leaq	__unnamed_42(%rip), %r8
	movl	$1, %r9d
	callq	_ZN4core3str6traits54_$LT$impl$u20$core..cmp..PartialEq$u20$for$u20$str$GT$2eq17hd824c456cd23700cE
.Ltmp61:
	movb	%al, 239(%rbp)
	jmp	.LBB82_59
.LBB82_58:
	movl	668(%rbp), %eax
	incl	%eax
	movl	%eax, 232(%rbp)
	seto	%al
	jo	.LBB82_259
	jmp	.LBB82_258
.LBB82_59:
	movb	239(%rbp), %al
	testb	$1, %al
	jne	.LBB82_61
	jmp	.LBB82_60
.LBB82_60:
.Ltmp62:
	movq	368(%rbp), %rdx
	movq	360(%rbp), %rcx
	leaq	__unnamed_43(%rip), %r8
	movl	$1, %r9d
	callq	_ZN4core3str6traits54_$LT$impl$u20$core..cmp..PartialEq$u20$for$u20$str$GT$2eq17hd824c456cd23700cE
.Ltmp63:
	movb	%al, 231(%rbp)
	jmp	.LBB82_62
.LBB82_61:
	movl	672(%rbp), %eax
	incl	%eax
	movl	%eax, 224(%rbp)
	seto	%al
	jo	.LBB82_257
	jmp	.LBB82_256
.LBB82_62:
	movb	231(%rbp), %al
	testb	$1, %al
	jne	.LBB82_64
	jmp	.LBB82_63
.LBB82_63:
.Ltmp64:
	movq	368(%rbp), %rdx
	movq	360(%rbp), %rcx
	leaq	__unnamed_44(%rip), %r8
	movl	$1, %r9d
	callq	_ZN4core3str6traits54_$LT$impl$u20$core..cmp..PartialEq$u20$for$u20$str$GT$2eq17hd824c456cd23700cE
.Ltmp65:
	movb	%al, 223(%rbp)
	jmp	.LBB82_65
.LBB82_64:
	movl	676(%rbp), %eax
	incl	%eax
	movl	%eax, 216(%rbp)
	seto	%al
	jo	.LBB82_255
	jmp	.LBB82_254
.LBB82_65:
	movb	223(%rbp), %al
	testb	$1, %al
	jne	.LBB82_67
	jmp	.LBB82_66
.LBB82_66:
.Ltmp66:
	movq	368(%rbp), %rdx
	movq	360(%rbp), %rcx
	leaq	__unnamed_45(%rip), %r8
	movl	$1, %r9d
	callq	_ZN4core3str6traits54_$LT$impl$u20$core..cmp..PartialEq$u20$for$u20$str$GT$2eq17hd824c456cd23700cE
.Ltmp67:
	movb	%al, 215(%rbp)
	jmp	.LBB82_68
.LBB82_67:
	movl	680(%rbp), %eax
	incl	%eax
	movl	%eax, 208(%rbp)
	seto	%al
	jo	.LBB82_253
	jmp	.LBB82_252
.LBB82_68:
	movb	215(%rbp), %al
	testb	$1, %al
	jne	.LBB82_70
	jmp	.LBB82_69
.LBB82_69:
.Ltmp68:
	movq	368(%rbp), %rdx
	movq	360(%rbp), %rcx
	leaq	__unnamed_46(%rip), %r8
	movl	$1, %r9d
	callq	_ZN4core3str6traits54_$LT$impl$u20$core..cmp..PartialEq$u20$for$u20$str$GT$2eq17hd824c456cd23700cE
.Ltmp69:
	movb	%al, 207(%rbp)
	jmp	.LBB82_71
.LBB82_70:
	movl	684(%rbp), %eax
	incl	%eax
	movl	%eax, 200(%rbp)
	seto	%al
	jo	.LBB82_251
	jmp	.LBB82_250
.LBB82_71:
	movb	207(%rbp), %al
	testb	$1, %al
	jne	.LBB82_73
	jmp	.LBB82_72
.LBB82_72:
.Ltmp70:
	movq	368(%rbp), %rdx
	movq	360(%rbp), %rcx
	leaq	__unnamed_47(%rip), %r8
	movl	$1, %r9d
	callq	_ZN4core3str6traits54_$LT$impl$u20$core..cmp..PartialEq$u20$for$u20$str$GT$2eq17hd824c456cd23700cE
.Ltmp71:
	movb	%al, 199(%rbp)
	jmp	.LBB82_74
.LBB82_73:
	movl	688(%rbp), %eax
	incl	%eax
	movl	%eax, 192(%rbp)
	seto	%al
	jo	.LBB82_249
	jmp	.LBB82_248
.LBB82_74:
	movb	199(%rbp), %al
	testb	$1, %al
	jne	.LBB82_76
	jmp	.LBB82_75
.LBB82_75:
.Ltmp72:
	movq	368(%rbp), %rdx
	movq	360(%rbp), %rcx
	leaq	__unnamed_48(%rip), %r8
	movl	$1, %r9d
	callq	_ZN4core3str6traits54_$LT$impl$u20$core..cmp..PartialEq$u20$for$u20$str$GT$2eq17hd824c456cd23700cE
.Ltmp73:
	movb	%al, 191(%rbp)
	jmp	.LBB82_77
.LBB82_76:
	movl	692(%rbp), %eax
	incl	%eax
	movl	%eax, 184(%rbp)
	seto	%al
	jo	.LBB82_247
	jmp	.LBB82_246
.LBB82_77:
	movb	191(%rbp), %al
	testb	$1, %al
	jne	.LBB82_79
	jmp	.LBB82_78
.LBB82_78:
.Ltmp74:
	movq	368(%rbp), %rdx
	movq	360(%rbp), %rcx
	leaq	__unnamed_49(%rip), %r8
	movl	$1, %r9d
	callq	_ZN4core3str6traits54_$LT$impl$u20$core..cmp..PartialEq$u20$for$u20$str$GT$2eq17hd824c456cd23700cE
.Ltmp75:
	movb	%al, 183(%rbp)
	jmp	.LBB82_80
.LBB82_79:
	movl	696(%rbp), %eax
	incl	%eax
	movl	%eax, 176(%rbp)
	seto	%al
	jo	.LBB82_245
	jmp	.LBB82_244
.LBB82_80:
	movb	183(%rbp), %al
	testb	$1, %al
	jne	.LBB82_82
	jmp	.LBB82_81
.LBB82_81:
.Ltmp76:
	movq	368(%rbp), %rdx
	movq	360(%rbp), %rcx
	leaq	__unnamed_50(%rip), %r8
	movl	$1, %r9d
	callq	_ZN4core3str6traits54_$LT$impl$u20$core..cmp..PartialEq$u20$for$u20$str$GT$2eq17hd824c456cd23700cE
.Ltmp77:
	movb	%al, 175(%rbp)
	jmp	.LBB82_83
.LBB82_82:
	movl	700(%rbp), %eax
	incl	%eax
	movl	%eax, 168(%rbp)
	seto	%al
	jo	.LBB82_243
	jmp	.LBB82_242
.LBB82_83:
	movb	175(%rbp), %al
	testb	$1, %al
	jne	.LBB82_85
	jmp	.LBB82_84
.LBB82_84:
.Ltmp78:
	movq	368(%rbp), %rdx
	movq	360(%rbp), %rcx
	leaq	__unnamed_51(%rip), %r8
	movl	$1, %r9d
	callq	_ZN4core3str6traits54_$LT$impl$u20$core..cmp..PartialEq$u20$for$u20$str$GT$2eq17hd824c456cd23700cE
.Ltmp79:
	movb	%al, 167(%rbp)
	jmp	.LBB82_86
.LBB82_85:
	movl	704(%rbp), %eax
	incl	%eax
	movl	%eax, 160(%rbp)
	seto	%al
	jo	.LBB82_241
	jmp	.LBB82_240
.LBB82_86:
	movb	167(%rbp), %al
	testb	$1, %al
	jne	.LBB82_88
	jmp	.LBB82_87
.LBB82_87:
.Ltmp80:
	movq	368(%rbp), %rdx
	movq	360(%rbp), %rcx
	leaq	__unnamed_52(%rip), %r8
	movl	$1, %r9d
	callq	_ZN4core3str6traits54_$LT$impl$u20$core..cmp..PartialEq$u20$for$u20$str$GT$2eq17hd824c456cd23700cE
.Ltmp81:
	movb	%al, 159(%rbp)
	jmp	.LBB82_89
.LBB82_88:
	movl	708(%rbp), %eax
	incl	%eax
	movl	%eax, 152(%rbp)
	seto	%al
	jo	.LBB82_239
	jmp	.LBB82_238
.LBB82_89:
	movb	159(%rbp), %al
	testb	$1, %al
	jne	.LBB82_91
	jmp	.LBB82_90
.LBB82_90:
.Ltmp82:
	movq	368(%rbp), %rdx
	movq	360(%rbp), %rcx
	leaq	__unnamed_53(%rip), %r8
	movl	$1, %r9d
	callq	_ZN4core3str6traits54_$LT$impl$u20$core..cmp..PartialEq$u20$for$u20$str$GT$2eq17hd824c456cd23700cE
.Ltmp83:
	movb	%al, 151(%rbp)
	jmp	.LBB82_92
.LBB82_91:
	movl	712(%rbp), %eax
	incl	%eax
	movl	%eax, 144(%rbp)
	seto	%al
	jo	.LBB82_237
	jmp	.LBB82_236
.LBB82_92:
	movb	151(%rbp), %al
	testb	$1, %al
	jne	.LBB82_94
	jmp	.LBB82_93
.LBB82_93:
.Ltmp84:
	movq	368(%rbp), %rdx
	movq	360(%rbp), %rcx
	leaq	__unnamed_54(%rip), %r8
	movl	$1, %r9d
	callq	_ZN4core3str6traits54_$LT$impl$u20$core..cmp..PartialEq$u20$for$u20$str$GT$2eq17hd824c456cd23700cE
.Ltmp85:
	movb	%al, 143(%rbp)
	jmp	.LBB82_95
.LBB82_94:
	movl	716(%rbp), %eax
	incl	%eax
	movl	%eax, 136(%rbp)
	seto	%al
	jo	.LBB82_235
	jmp	.LBB82_234
.LBB82_95:
	movb	143(%rbp), %al
	testb	$1, %al
	jne	.LBB82_97
	jmp	.LBB82_96
.LBB82_96:
.Ltmp86:
	movq	368(%rbp), %rdx
	movq	360(%rbp), %rcx
	leaq	__unnamed_55(%rip), %r8
	movl	$1, %r9d
	callq	_ZN4core3str6traits54_$LT$impl$u20$core..cmp..PartialEq$u20$for$u20$str$GT$2eq17hd824c456cd23700cE
.Ltmp87:
	movb	%al, 135(%rbp)
	jmp	.LBB82_98
.LBB82_97:
	movl	720(%rbp), %eax
	incl	%eax
	movl	%eax, 128(%rbp)
	seto	%al
	jo	.LBB82_233
	jmp	.LBB82_232
.LBB82_98:
	movb	135(%rbp), %al
	testb	$1, %al
	jne	.LBB82_100
	jmp	.LBB82_99
.LBB82_99:
.Ltmp88:
	movq	368(%rbp), %rdx
	movq	360(%rbp), %rcx
	leaq	__unnamed_56(%rip), %r8
	movl	$1, %r9d
	callq	_ZN4core3str6traits54_$LT$impl$u20$core..cmp..PartialEq$u20$for$u20$str$GT$2eq17hd824c456cd23700cE
.Ltmp89:
	movb	%al, 127(%rbp)
	jmp	.LBB82_101
.LBB82_100:
	movl	724(%rbp), %eax
	incl	%eax
	movl	%eax, 120(%rbp)
	seto	%al
	jo	.LBB82_231
	jmp	.LBB82_230
.LBB82_101:
	movb	127(%rbp), %al
	testb	$1, %al
	jne	.LBB82_103
	jmp	.LBB82_102
.LBB82_102:
.Ltmp90:
	movq	368(%rbp), %rdx
	movq	360(%rbp), %rcx
	leaq	__unnamed_57(%rip), %r8
	movl	$1, %r9d
	callq	_ZN4core3str6traits54_$LT$impl$u20$core..cmp..PartialEq$u20$for$u20$str$GT$2eq17hd824c456cd23700cE
.Ltmp91:
	movb	%al, 119(%rbp)
	jmp	.LBB82_104
.LBB82_103:
	movl	624(%rbp), %eax
	incl	%eax
	movl	%eax, 112(%rbp)
	seto	%al
	jo	.LBB82_229
	jmp	.LBB82_228
.LBB82_104:
	movb	119(%rbp), %al
	testb	$1, %al
	jne	.LBB82_106
	jmp	.LBB82_105
.LBB82_105:
.Ltmp92:
	movq	368(%rbp), %rdx
	movq	360(%rbp), %rcx
	leaq	__unnamed_58(%rip), %r8
	movl	$1, %r9d
	callq	_ZN4core3str6traits54_$LT$impl$u20$core..cmp..PartialEq$u20$for$u20$str$GT$2eq17hd824c456cd23700cE
.Ltmp93:
	movb	%al, 111(%rbp)
	jmp	.LBB82_107
.LBB82_106:
	movl	628(%rbp), %eax
	incl	%eax
	movl	%eax, 104(%rbp)
	seto	%al
	jo	.LBB82_227
	jmp	.LBB82_226
.LBB82_107:
	movb	111(%rbp), %al
	testb	$1, %al
	jne	.LBB82_109
	jmp	.LBB82_108
.LBB82_108:
.Ltmp94:
	movq	368(%rbp), %rdx
	movq	360(%rbp), %rcx
	leaq	__unnamed_59(%rip), %r8
	movl	$1, %r9d
	callq	_ZN4core3str6traits54_$LT$impl$u20$core..cmp..PartialEq$u20$for$u20$str$GT$2eq17hd824c456cd23700cE
.Ltmp95:
	movb	%al, 103(%rbp)
	jmp	.LBB82_110
.LBB82_109:
	movl	632(%rbp), %eax
	incl	%eax
	movl	%eax, 96(%rbp)
	seto	%al
	jo	.LBB82_225
	jmp	.LBB82_224
.LBB82_110:
	movb	103(%rbp), %al
	testb	$1, %al
	jne	.LBB82_112
	jmp	.LBB82_111
.LBB82_111:
.Ltmp96:
	movq	368(%rbp), %rdx
	movq	360(%rbp), %rcx
	leaq	__unnamed_60(%rip), %r8
	movl	$1, %r9d
	callq	_ZN4core3str6traits54_$LT$impl$u20$core..cmp..PartialEq$u20$for$u20$str$GT$2eq17hd824c456cd23700cE
.Ltmp97:
	movb	%al, 95(%rbp)
	jmp	.LBB82_113
.LBB82_112:
	movl	636(%rbp), %eax
	incl	%eax
	movl	%eax, 88(%rbp)
	seto	%al
	jo	.LBB82_223
	jmp	.LBB82_222
.LBB82_113:
	movb	95(%rbp), %al
	testb	$1, %al
	jne	.LBB82_115
	jmp	.LBB82_114
.LBB82_114:
.Ltmp98:
	movq	368(%rbp), %rdx
	movq	360(%rbp), %rcx
	leaq	__unnamed_61(%rip), %r8
	movl	$1, %r9d
	callq	_ZN4core3str6traits54_$LT$impl$u20$core..cmp..PartialEq$u20$for$u20$str$GT$2eq17hd824c456cd23700cE
.Ltmp99:
	movb	%al, 87(%rbp)
	jmp	.LBB82_116
.LBB82_115:
	movl	640(%rbp), %eax
	incl	%eax
	movl	%eax, 80(%rbp)
	seto	%al
	jo	.LBB82_221
	jmp	.LBB82_220
.LBB82_116:
	movb	87(%rbp), %al
	testb	$1, %al
	jne	.LBB82_118
	jmp	.LBB82_117
.LBB82_117:
.Ltmp100:
	movq	368(%rbp), %rdx
	movq	360(%rbp), %rcx
	leaq	__unnamed_62(%rip), %r8
	movl	$1, %r9d
	callq	_ZN4core3str6traits54_$LT$impl$u20$core..cmp..PartialEq$u20$for$u20$str$GT$2eq17hd824c456cd23700cE
.Ltmp101:
	movb	%al, 79(%rbp)
	jmp	.LBB82_119
.LBB82_118:
	movl	644(%rbp), %eax
	incl	%eax
	movl	%eax, 72(%rbp)
	seto	%al
	jo	.LBB82_219
	jmp	.LBB82_218
.LBB82_119:
	movb	79(%rbp), %al
	testb	$1, %al
	jne	.LBB82_121
	jmp	.LBB82_120
.LBB82_120:
.Ltmp102:
	movq	368(%rbp), %rdx
	movq	360(%rbp), %rcx
	leaq	__unnamed_63(%rip), %r8
	movl	$1, %r9d
	callq	_ZN4core3str6traits54_$LT$impl$u20$core..cmp..PartialEq$u20$for$u20$str$GT$2eq17hd824c456cd23700cE
.Ltmp103:
	movb	%al, 71(%rbp)
	jmp	.LBB82_122
.LBB82_121:
	movl	648(%rbp), %eax
	incl	%eax
	movl	%eax, 64(%rbp)
	seto	%al
	jo	.LBB82_217
	jmp	.LBB82_216
.LBB82_122:
	movb	71(%rbp), %al
	testb	$1, %al
	jne	.LBB82_124
	jmp	.LBB82_123
.LBB82_123:
.Ltmp104:
	movq	368(%rbp), %rdx
	movq	360(%rbp), %rcx
	leaq	__unnamed_64(%rip), %r8
	movl	$1, %r9d
	callq	_ZN4core3str6traits54_$LT$impl$u20$core..cmp..PartialEq$u20$for$u20$str$GT$2eq17hd824c456cd23700cE
.Ltmp105:
	movb	%al, 63(%rbp)
	jmp	.LBB82_125
.LBB82_124:
	movl	652(%rbp), %eax
	incl	%eax
	movl	%eax, 56(%rbp)
	seto	%al
	jo	.LBB82_215
	jmp	.LBB82_214
.LBB82_125:
	movb	63(%rbp), %al
	testb	$1, %al
	jne	.LBB82_127
	jmp	.LBB82_126
.LBB82_126:
.Ltmp106:
	movq	368(%rbp), %rdx
	movq	360(%rbp), %rcx
	leaq	__unnamed_65(%rip), %r8
	movl	$1, %r9d
	callq	_ZN4core3str6traits54_$LT$impl$u20$core..cmp..PartialEq$u20$for$u20$str$GT$2eq17hd824c456cd23700cE
.Ltmp107:
	movb	%al, 55(%rbp)
	jmp	.LBB82_128
.LBB82_127:
	movl	656(%rbp), %eax
	incl	%eax
	movl	%eax, 48(%rbp)
	seto	%al
	jo	.LBB82_213
	jmp	.LBB82_212
.LBB82_128:
	movb	55(%rbp), %al
	testb	$1, %al
	jne	.LBB82_130
	jmp	.LBB82_129
.LBB82_129:
.Ltmp108:
	movq	368(%rbp), %rdx
	movq	360(%rbp), %rcx
	leaq	__unnamed_66(%rip), %r8
	movl	$1, %r9d
	callq	_ZN4core3str6traits54_$LT$impl$u20$core..cmp..PartialEq$u20$for$u20$str$GT$2eq17hd824c456cd23700cE
.Ltmp109:
	movb	%al, 47(%rbp)
	jmp	.LBB82_131
.LBB82_130:
	movl	660(%rbp), %eax
	incl	%eax
	movl	%eax, 40(%rbp)
	seto	%al
	jo	.LBB82_211
	jmp	.LBB82_210
.LBB82_131:
	movb	47(%rbp), %al
	testb	$1, %al
	jne	.LBB82_133
	jmp	.LBB82_132
.LBB82_132:
.Ltmp110:
	movq	368(%rbp), %rdx
	movq	360(%rbp), %rcx
	leaq	__unnamed_67(%rip), %r8
	movl	$1, %r9d
	callq	_ZN4core3str6traits54_$LT$impl$u20$core..cmp..PartialEq$u20$for$u20$str$GT$2eq17hd824c456cd23700cE
.Ltmp111:
	movb	%al, 39(%rbp)
	jmp	.LBB82_134
.LBB82_133:
	movl	664(%rbp), %eax
	incl	%eax
	movl	%eax, 32(%rbp)
	seto	%al
	jo	.LBB82_209
	jmp	.LBB82_208
.LBB82_134:
	movb	39(%rbp), %al
	testb	$1, %al
	jne	.LBB82_136
	jmp	.LBB82_135
.LBB82_135:
.Ltmp112:
	movq	368(%rbp), %rdx
	movq	360(%rbp), %rcx
	leaq	__unnamed_68(%rip), %r8
	movl	$1, %r9d
	callq	_ZN4core3str6traits54_$LT$impl$u20$core..cmp..PartialEq$u20$for$u20$str$GT$2eq17hd824c456cd23700cE
.Ltmp113:
	movb	%al, 31(%rbp)
	jmp	.LBB82_137
.LBB82_136:
	movl	668(%rbp), %eax
	incl	%eax
	movl	%eax, 24(%rbp)
	seto	%al
	jo	.LBB82_207
	jmp	.LBB82_206
.LBB82_137:
	movb	31(%rbp), %al
	testb	$1, %al
	jne	.LBB82_139
	jmp	.LBB82_138
.LBB82_138:
.Ltmp114:
	movq	368(%rbp), %rdx
	movq	360(%rbp), %rcx
	leaq	__unnamed_69(%rip), %r8
	movl	$1, %r9d
	callq	_ZN4core3str6traits54_$LT$impl$u20$core..cmp..PartialEq$u20$for$u20$str$GT$2eq17hd824c456cd23700cE
.Ltmp115:
	movb	%al, 23(%rbp)
	jmp	.LBB82_140
.LBB82_139:
	movl	672(%rbp), %eax
	incl	%eax
	movl	%eax, 16(%rbp)
	seto	%al
	jo	.LBB82_205
	jmp	.LBB82_204
.LBB82_140:
	movb	23(%rbp), %al
	testb	$1, %al
	jne	.LBB82_142
	jmp	.LBB82_141
.LBB82_141:
.Ltmp116:
	movq	368(%rbp), %rdx
	movq	360(%rbp), %rcx
	leaq	__unnamed_70(%rip), %r8
	movl	$1, %r9d
	callq	_ZN4core3str6traits54_$LT$impl$u20$core..cmp..PartialEq$u20$for$u20$str$GT$2eq17hd824c456cd23700cE
.Ltmp117:
	movb	%al, 15(%rbp)
	jmp	.LBB82_143
.LBB82_142:
	movl	676(%rbp), %eax
	incl	%eax
	movl	%eax, 8(%rbp)
	seto	%al
	jo	.LBB82_203
	jmp	.LBB82_202
.LBB82_143:
	movb	15(%rbp), %al
	testb	$1, %al
	jne	.LBB82_145
	jmp	.LBB82_144
.LBB82_144:
.Ltmp118:
	movq	368(%rbp), %rdx
	movq	360(%rbp), %rcx
	leaq	__unnamed_71(%rip), %r8
	movl	$1, %r9d
	callq	_ZN4core3str6traits54_$LT$impl$u20$core..cmp..PartialEq$u20$for$u20$str$GT$2eq17hd824c456cd23700cE
.Ltmp119:
	movb	%al, 7(%rbp)
	jmp	.LBB82_146
.LBB82_145:
	movl	680(%rbp), %eax
	incl	%eax
	movl	%eax, (%rbp)
	seto	%al
	jo	.LBB82_201
	jmp	.LBB82_200
.LBB82_146:
	movb	7(%rbp), %al
	testb	$1, %al
	jne	.LBB82_148
	jmp	.LBB82_147
.LBB82_147:
.Ltmp120:
	movq	368(%rbp), %rdx
	movq	360(%rbp), %rcx
	leaq	__unnamed_72(%rip), %r8
	movl	$1, %r9d
	callq	_ZN4core3str6traits54_$LT$impl$u20$core..cmp..PartialEq$u20$for$u20$str$GT$2eq17hd824c456cd23700cE
.Ltmp121:
	movb	%al, -1(%rbp)
	jmp	.LBB82_149
.LBB82_148:
	movl	684(%rbp), %eax
	incl	%eax
	movl	%eax, -8(%rbp)
	seto	%al
	jo	.LBB82_199
	jmp	.LBB82_198
.LBB82_149:
	movb	-1(%rbp), %al
	testb	$1, %al
	jne	.LBB82_151
	jmp	.LBB82_150
.LBB82_150:
.Ltmp122:
	movq	368(%rbp), %rdx
	movq	360(%rbp), %rcx
	leaq	__unnamed_73(%rip), %r8
	movl	$1, %r9d
	callq	_ZN4core3str6traits54_$LT$impl$u20$core..cmp..PartialEq$u20$for$u20$str$GT$2eq17hd824c456cd23700cE
.Ltmp123:
	movb	%al, -9(%rbp)
	jmp	.LBB82_152
.LBB82_151:
	movl	688(%rbp), %eax
	incl	%eax
	movl	%eax, -16(%rbp)
	seto	%al
	jo	.LBB82_197
	jmp	.LBB82_196
.LBB82_152:
	movb	-9(%rbp), %al
	testb	$1, %al
	jne	.LBB82_154
	jmp	.LBB82_153
.LBB82_153:
.Ltmp124:
	movq	368(%rbp), %rdx
	movq	360(%rbp), %rcx
	leaq	__unnamed_74(%rip), %r8
	movl	$1, %r9d
	callq	_ZN4core3str6traits54_$LT$impl$u20$core..cmp..PartialEq$u20$for$u20$str$GT$2eq17hd824c456cd23700cE
.Ltmp125:
	movb	%al, -17(%rbp)
	jmp	.LBB82_155
.LBB82_154:
	movl	692(%rbp), %eax
	incl	%eax
	movl	%eax, -24(%rbp)
	seto	%al
	jo	.LBB82_195
	jmp	.LBB82_194
.LBB82_155:
	movb	-17(%rbp), %al
	testb	$1, %al
	jne	.LBB82_157
	jmp	.LBB82_156
.LBB82_156:
.Ltmp126:
	movq	368(%rbp), %rdx
	movq	360(%rbp), %rcx
	leaq	__unnamed_75(%rip), %r8
	movl	$1, %r9d
	callq	_ZN4core3str6traits54_$LT$impl$u20$core..cmp..PartialEq$u20$for$u20$str$GT$2eq17hd824c456cd23700cE
.Ltmp127:
	movb	%al, -25(%rbp)
	jmp	.LBB82_158
.LBB82_157:
	movl	696(%rbp), %eax
	incl	%eax
	movl	%eax, -32(%rbp)
	seto	%al
	jo	.LBB82_193
	jmp	.LBB82_192
.LBB82_158:
	movb	-25(%rbp), %al
	testb	$1, %al
	jne	.LBB82_160
	jmp	.LBB82_159
.LBB82_159:
.Ltmp128:
	movq	368(%rbp), %rdx
	movq	360(%rbp), %rcx
	leaq	__unnamed_76(%rip), %r8
	movl	$1, %r9d
	callq	_ZN4core3str6traits54_$LT$impl$u20$core..cmp..PartialEq$u20$for$u20$str$GT$2eq17hd824c456cd23700cE
.Ltmp129:
	movb	%al, -33(%rbp)
	jmp	.LBB82_161
.LBB82_160:
	movl	700(%rbp), %eax
	incl	%eax
	movl	%eax, -40(%rbp)
	seto	%al
	jo	.LBB82_191
	jmp	.LBB82_190
.LBB82_161:
	movb	-33(%rbp), %al
	testb	$1, %al
	jne	.LBB82_163
	jmp	.LBB82_162
.LBB82_162:
.Ltmp130:
	movq	368(%rbp), %rdx
	movq	360(%rbp), %rcx
	leaq	__unnamed_77(%rip), %r8
	movl	$1, %r9d
	callq	_ZN4core3str6traits54_$LT$impl$u20$core..cmp..PartialEq$u20$for$u20$str$GT$2eq17hd824c456cd23700cE
.Ltmp131:
	movb	%al, -41(%rbp)
	jmp	.LBB82_164
.LBB82_163:
	movl	704(%rbp), %eax
	incl	%eax
	movl	%eax, -48(%rbp)
	seto	%al
	jo	.LBB82_189
	jmp	.LBB82_188
.LBB82_164:
	movb	-41(%rbp), %al
	testb	$1, %al
	jne	.LBB82_166
	jmp	.LBB82_165
.LBB82_165:
.Ltmp132:
	movq	368(%rbp), %rdx
	movq	360(%rbp), %rcx
	leaq	__unnamed_78(%rip), %r8
	movl	$1, %r9d
	callq	_ZN4core3str6traits54_$LT$impl$u20$core..cmp..PartialEq$u20$for$u20$str$GT$2eq17hd824c456cd23700cE
.Ltmp133:
	movb	%al, -49(%rbp)
	jmp	.LBB82_167
.LBB82_166:
	movl	708(%rbp), %eax
	incl	%eax
	movl	%eax, -56(%rbp)
	seto	%al
	jo	.LBB82_187
	jmp	.LBB82_186
.LBB82_167:
	movb	-49(%rbp), %al
	testb	$1, %al
	jne	.LBB82_169
	jmp	.LBB82_168
.LBB82_168:
.Ltmp134:
	movq	368(%rbp), %rdx
	movq	360(%rbp), %rcx
	leaq	__unnamed_79(%rip), %r8
	movl	$1, %r9d
	callq	_ZN4core3str6traits54_$LT$impl$u20$core..cmp..PartialEq$u20$for$u20$str$GT$2eq17hd824c456cd23700cE
.Ltmp135:
	movb	%al, -57(%rbp)
	jmp	.LBB82_170
.LBB82_169:
	movl	712(%rbp), %eax
	incl	%eax
	movl	%eax, -64(%rbp)
	seto	%al
	jo	.LBB82_185
	jmp	.LBB82_184
.LBB82_170:
	movb	-57(%rbp), %al
	testb	$1, %al
	jne	.LBB82_172
	jmp	.LBB82_171
.LBB82_171:
.Ltmp136:
	movq	368(%rbp), %rdx
	movq	360(%rbp), %rcx
	leaq	__unnamed_80(%rip), %r8
	movl	$1, %r9d
	callq	_ZN4core3str6traits54_$LT$impl$u20$core..cmp..PartialEq$u20$for$u20$str$GT$2eq17hd824c456cd23700cE
.Ltmp137:
	movb	%al, -65(%rbp)
	jmp	.LBB82_173
.LBB82_172:
	movl	716(%rbp), %eax
	incl	%eax
	movl	%eax, -72(%rbp)
	seto	%al
	jo	.LBB82_183
	jmp	.LBB82_182
.LBB82_173:
	movb	-65(%rbp), %al
	testb	$1, %al
	jne	.LBB82_175
	jmp	.LBB82_174
.LBB82_174:
.Ltmp138:
	movq	368(%rbp), %rdx
	movq	360(%rbp), %rcx
	leaq	__unnamed_81(%rip), %r8
	movl	$1, %r9d
	callq	_ZN4core3str6traits54_$LT$impl$u20$core..cmp..PartialEq$u20$for$u20$str$GT$2eq17hd824c456cd23700cE
.Ltmp139:
	movb	%al, -73(%rbp)
	jmp	.LBB82_176
.LBB82_175:
	movl	720(%rbp), %eax
	incl	%eax
	movl	%eax, -80(%rbp)
	seto	%al
	jo	.LBB82_181
	jmp	.LBB82_180
.LBB82_176:
	movb	-73(%rbp), %al
	testb	$1, %al
	jne	.LBB82_177
	jmp	.LBB82_5
.LBB82_177:
	movl	724(%rbp), %eax
	incl	%eax
	movl	%eax, -84(%rbp)
	seto	%al
	jo	.LBB82_179
	movl	-84(%rbp), %eax
	movl	%eax, 724(%rbp)
	jmp	.LBB82_5
.LBB82_179:
.Ltmp140:
	leaq	__unnamed_82(%rip), %rcx
	callq	_ZN4core9panicking11panic_const24panic_const_add_overflow17he356f8cd7e4debd3E
.Ltmp141:
	jmp	.LBB82_18
.LBB82_180:
	movl	-80(%rbp), %eax
	movl	%eax, 720(%rbp)
	jmp	.LBB82_5
.LBB82_181:
.Ltmp142:
	leaq	__unnamed_83(%rip), %rcx
	callq	_ZN4core9panicking11panic_const24panic_const_add_overflow17he356f8cd7e4debd3E
.Ltmp143:
	jmp	.LBB82_18
.LBB82_182:
	movl	-72(%rbp), %eax
	movl	%eax, 716(%rbp)
	jmp	.LBB82_5
.LBB82_183:
.Ltmp144:
	leaq	__unnamed_84(%rip), %rcx
	callq	_ZN4core9panicking11panic_const24panic_const_add_overflow17he356f8cd7e4debd3E
.Ltmp145:
	jmp	.LBB82_18
.LBB82_184:
	movl	-64(%rbp), %eax
	movl	%eax, 712(%rbp)
	jmp	.LBB82_5
.LBB82_185:
.Ltmp146:
	leaq	__unnamed_85(%rip), %rcx
	callq	_ZN4core9panicking11panic_const24panic_const_add_overflow17he356f8cd7e4debd3E
.Ltmp147:
	jmp	.LBB82_18
.LBB82_186:
	movl	-56(%rbp), %eax
	movl	%eax, 708(%rbp)
	jmp	.LBB82_5
.LBB82_187:
.Ltmp148:
	leaq	__unnamed_86(%rip), %rcx
	callq	_ZN4core9panicking11panic_const24panic_const_add_overflow17he356f8cd7e4debd3E
.Ltmp149:
	jmp	.LBB82_18
.LBB82_188:
	movl	-48(%rbp), %eax
	movl	%eax, 704(%rbp)
	jmp	.LBB82_5
.LBB82_189:
.Ltmp150:
	leaq	__unnamed_87(%rip), %rcx
	callq	_ZN4core9panicking11panic_const24panic_const_add_overflow17he356f8cd7e4debd3E
.Ltmp151:
	jmp	.LBB82_18
.LBB82_190:
	movl	-40(%rbp), %eax
	movl	%eax, 700(%rbp)
	jmp	.LBB82_5
.LBB82_191:
.Ltmp152:
	leaq	__unnamed_88(%rip), %rcx
	callq	_ZN4core9panicking11panic_const24panic_const_add_overflow17he356f8cd7e4debd3E
.Ltmp153:
	jmp	.LBB82_18
.LBB82_192:
	movl	-32(%rbp), %eax
	movl	%eax, 696(%rbp)
	jmp	.LBB82_5
.LBB82_193:
.Ltmp154:
	leaq	__unnamed_89(%rip), %rcx
	callq	_ZN4core9panicking11panic_const24panic_const_add_overflow17he356f8cd7e4debd3E
.Ltmp155:
	jmp	.LBB82_18
.LBB82_194:
	movl	-24(%rbp), %eax
	movl	%eax, 692(%rbp)
	jmp	.LBB82_5
.LBB82_195:
.Ltmp156:
	leaq	__unnamed_90(%rip), %rcx
	callq	_ZN4core9panicking11panic_const24panic_const_add_overflow17he356f8cd7e4debd3E
.Ltmp157:
	jmp	.LBB82_18
.LBB82_196:
	movl	-16(%rbp), %eax
	movl	%eax, 688(%rbp)
	jmp	.LBB82_5
.LBB82_197:
.Ltmp158:
	leaq	__unnamed_91(%rip), %rcx
	callq	_ZN4core9panicking11panic_const24panic_const_add_overflow17he356f8cd7e4debd3E
.Ltmp159:
	jmp	.LBB82_18
.LBB82_198:
	movl	-8(%rbp), %eax
	movl	%eax, 684(%rbp)
	jmp	.LBB82_5
.LBB82_199:
.Ltmp160:
	leaq	__unnamed_92(%rip), %rcx
	callq	_ZN4core9panicking11panic_const24panic_const_add_overflow17he356f8cd7e4debd3E
.Ltmp161:
	jmp	.LBB82_18
.LBB82_200:
	movl	(%rbp), %eax
	movl	%eax, 680(%rbp)
	jmp	.LBB82_5
.LBB82_201:
.Ltmp162:
	leaq	__unnamed_93(%rip), %rcx
	callq	_ZN4core9panicking11panic_const24panic_const_add_overflow17he356f8cd7e4debd3E
.Ltmp163:
	jmp	.LBB82_18
.LBB82_202:
	movl	8(%rbp), %eax
	movl	%eax, 676(%rbp)
	jmp	.LBB82_5
.LBB82_203:
.Ltmp164:
	leaq	__unnamed_94(%rip), %rcx
	callq	_ZN4core9panicking11panic_const24panic_const_add_overflow17he356f8cd7e4debd3E
.Ltmp165:
	jmp	.LBB82_18
.LBB82_204:
	movl	16(%rbp), %eax
	movl	%eax, 672(%rbp)
	jmp	.LBB82_5
.LBB82_205:
.Ltmp166:
	leaq	__unnamed_95(%rip), %rcx
	callq	_ZN4core9panicking11panic_const24panic_const_add_overflow17he356f8cd7e4debd3E
.Ltmp167:
	jmp	.LBB82_18
.LBB82_206:
	movl	24(%rbp), %eax
	movl	%eax, 668(%rbp)
	jmp	.LBB82_5
.LBB82_207:
.Ltmp168:
	leaq	__unnamed_96(%rip), %rcx
	callq	_ZN4core9panicking11panic_const24panic_const_add_overflow17he356f8cd7e4debd3E
.Ltmp169:
	jmp	.LBB82_18
.LBB82_208:
	movl	32(%rbp), %eax
	movl	%eax, 664(%rbp)
	jmp	.LBB82_5
.LBB82_209:
.Ltmp170:
	leaq	__unnamed_97(%rip), %rcx
	callq	_ZN4core9panicking11panic_const24panic_const_add_overflow17he356f8cd7e4debd3E
.Ltmp171:
	jmp	.LBB82_18
.LBB82_210:
	movl	40(%rbp), %eax
	movl	%eax, 660(%rbp)
	jmp	.LBB82_5
.LBB82_211:
.Ltmp172:
	leaq	__unnamed_98(%rip), %rcx
	callq	_ZN4core9panicking11panic_const24panic_const_add_overflow17he356f8cd7e4debd3E
.Ltmp173:
	jmp	.LBB82_18
.LBB82_212:
	movl	48(%rbp), %eax
	movl	%eax, 656(%rbp)
	jmp	.LBB82_5
.LBB82_213:
.Ltmp174:
	leaq	__unnamed_99(%rip), %rcx
	callq	_ZN4core9panicking11panic_const24panic_const_add_overflow17he356f8cd7e4debd3E
.Ltmp175:
	jmp	.LBB82_18
.LBB82_214:
	movl	56(%rbp), %eax
	movl	%eax, 652(%rbp)
	jmp	.LBB82_5
.LBB82_215:
.Ltmp176:
	leaq	__unnamed_100(%rip), %rcx
	callq	_ZN4core9panicking11panic_const24panic_const_add_overflow17he356f8cd7e4debd3E
.Ltmp177:
	jmp	.LBB82_18
.LBB82_216:
	movl	64(%rbp), %eax
	movl	%eax, 648(%rbp)
	jmp	.LBB82_5
.LBB82_217:
.Ltmp178:
	leaq	__unnamed_101(%rip), %rcx
	callq	_ZN4core9panicking11panic_const24panic_const_add_overflow17he356f8cd7e4debd3E
.Ltmp179:
	jmp	.LBB82_18
.LBB82_218:
	movl	72(%rbp), %eax
	movl	%eax, 644(%rbp)
	jmp	.LBB82_5
.LBB82_219:
.Ltmp180:
	leaq	__unnamed_102(%rip), %rcx
	callq	_ZN4core9panicking11panic_const24panic_const_add_overflow17he356f8cd7e4debd3E
.Ltmp181:
	jmp	.LBB82_18
.LBB82_220:
	movl	80(%rbp), %eax
	movl	%eax, 640(%rbp)
	jmp	.LBB82_5
.LBB82_221:
.Ltmp182:
	leaq	__unnamed_103(%rip), %rcx
	callq	_ZN4core9panicking11panic_const24panic_const_add_overflow17he356f8cd7e4debd3E
.Ltmp183:
	jmp	.LBB82_18
.LBB82_222:
	movl	88(%rbp), %eax
	movl	%eax, 636(%rbp)
	jmp	.LBB82_5
.LBB82_223:
.Ltmp184:
	leaq	__unnamed_104(%rip), %rcx
	callq	_ZN4core9panicking11panic_const24panic_const_add_overflow17he356f8cd7e4debd3E
.Ltmp185:
	jmp	.LBB82_18
.LBB82_224:
	movl	96(%rbp), %eax
	movl	%eax, 632(%rbp)
	jmp	.LBB82_5
.LBB82_225:
.Ltmp186:
	leaq	__unnamed_105(%rip), %rcx
	callq	_ZN4core9panicking11panic_const24panic_const_add_overflow17he356f8cd7e4debd3E
.Ltmp187:
	jmp	.LBB82_18
.LBB82_226:
	movl	104(%rbp), %eax
	movl	%eax, 628(%rbp)
	jmp	.LBB82_5
.LBB82_227:
.Ltmp188:
	leaq	__unnamed_106(%rip), %rcx
	callq	_ZN4core9panicking11panic_const24panic_const_add_overflow17he356f8cd7e4debd3E
.Ltmp189:
	jmp	.LBB82_18
.LBB82_228:
	movl	112(%rbp), %eax
	movl	%eax, 624(%rbp)
	jmp	.LBB82_5
.LBB82_229:
.Ltmp190:
	leaq	__unnamed_107(%rip), %rcx
	callq	_ZN4core9panicking11panic_const24panic_const_add_overflow17he356f8cd7e4debd3E
.Ltmp191:
	jmp	.LBB82_18
.LBB82_230:
	movl	120(%rbp), %eax
	movl	%eax, 724(%rbp)
	jmp	.LBB82_5
.LBB82_231:
.Ltmp192:
	leaq	__unnamed_108(%rip), %rcx
	callq	_ZN4core9panicking11panic_const24panic_const_add_overflow17he356f8cd7e4debd3E
.Ltmp193:
	jmp	.LBB82_18
.LBB82_232:
	movl	128(%rbp), %eax
	movl	%eax, 720(%rbp)
	jmp	.LBB82_5
.LBB82_233:
.Ltmp194:
	leaq	__unnamed_109(%rip), %rcx
	callq	_ZN4core9panicking11panic_const24panic_const_add_overflow17he356f8cd7e4debd3E
.Ltmp195:
	jmp	.LBB82_18
.LBB82_234:
	movl	136(%rbp), %eax
	movl	%eax, 716(%rbp)
	jmp	.LBB82_5
.LBB82_235:
.Ltmp196:
	leaq	__unnamed_110(%rip), %rcx
	callq	_ZN4core9panicking11panic_const24panic_const_add_overflow17he356f8cd7e4debd3E
.Ltmp197:
	jmp	.LBB82_18
.LBB82_236:
	movl	144(%rbp), %eax
	movl	%eax, 712(%rbp)
	jmp	.LBB82_5
.LBB82_237:
.Ltmp198:
	leaq	__unnamed_111(%rip), %rcx
	callq	_ZN4core9panicking11panic_const24panic_const_add_overflow17he356f8cd7e4debd3E
.Ltmp199:
	jmp	.LBB82_18
.LBB82_238:
	movl	152(%rbp), %eax
	movl	%eax, 708(%rbp)
	jmp	.LBB82_5
.LBB82_239:
.Ltmp200:
	leaq	__unnamed_112(%rip), %rcx
	callq	_ZN4core9panicking11panic_const24panic_const_add_overflow17he356f8cd7e4debd3E
.Ltmp201:
	jmp	.LBB82_18
.LBB82_240:
	movl	160(%rbp), %eax
	movl	%eax, 704(%rbp)
	jmp	.LBB82_5
.LBB82_241:
.Ltmp202:
	leaq	__unnamed_113(%rip), %rcx
	callq	_ZN4core9panicking11panic_const24panic_const_add_overflow17he356f8cd7e4debd3E
.Ltmp203:
	jmp	.LBB82_18
.LBB82_242:
	movl	168(%rbp), %eax
	movl	%eax, 700(%rbp)
	jmp	.LBB82_5
.LBB82_243:
.Ltmp204:
	leaq	__unnamed_114(%rip), %rcx
	callq	_ZN4core9panicking11panic_const24panic_const_add_overflow17he356f8cd7e4debd3E
.Ltmp205:
	jmp	.LBB82_18
.LBB82_244:
	movl	176(%rbp), %eax
	movl	%eax, 696(%rbp)
	jmp	.LBB82_5
.LBB82_245:
.Ltmp206:
	leaq	__unnamed_115(%rip), %rcx
	callq	_ZN4core9panicking11panic_const24panic_const_add_overflow17he356f8cd7e4debd3E
.Ltmp207:
	jmp	.LBB82_18
.LBB82_246:
	movl	184(%rbp), %eax
	movl	%eax, 692(%rbp)
	jmp	.LBB82_5
.LBB82_247:
.Ltmp208:
	leaq	__unnamed_116(%rip), %rcx
	callq	_ZN4core9panicking11panic_const24panic_const_add_overflow17he356f8cd7e4debd3E
.Ltmp209:
	jmp	.LBB82_18
.LBB82_248:
	movl	192(%rbp), %eax
	movl	%eax, 688(%rbp)
	jmp	.LBB82_5
.LBB82_249:
.Ltmp210:
	leaq	__unnamed_117(%rip), %rcx
	callq	_ZN4core9panicking11panic_const24panic_const_add_overflow17he356f8cd7e4debd3E
.Ltmp211:
	jmp	.LBB82_18
.LBB82_250:
	movl	200(%rbp), %eax
	movl	%eax, 684(%rbp)
	jmp	.LBB82_5
.LBB82_251:
.Ltmp212:
	leaq	__unnamed_118(%rip), %rcx
	callq	_ZN4core9panicking11panic_const24panic_const_add_overflow17he356f8cd7e4debd3E
.Ltmp213:
	jmp	.LBB82_18
.LBB82_252:
	movl	208(%rbp), %eax
	movl	%eax, 680(%rbp)
	jmp	.LBB82_5
.LBB82_253:
.Ltmp214:
	leaq	__unnamed_119(%rip), %rcx
	callq	_ZN4core9panicking11panic_const24panic_const_add_overflow17he356f8cd7e4debd3E
.Ltmp215:
	jmp	.LBB82_18
.LBB82_254:
	movl	216(%rbp), %eax
	movl	%eax, 676(%rbp)
	jmp	.LBB82_5
.LBB82_255:
.Ltmp216:
	leaq	__unnamed_120(%rip), %rcx
	callq	_ZN4core9panicking11panic_const24panic_const_add_overflow17he356f8cd7e4debd3E
.Ltmp217:
	jmp	.LBB82_18
.LBB82_256:
	movl	224(%rbp), %eax
	movl	%eax, 672(%rbp)
	jmp	.LBB82_5
.LBB82_257:
.Ltmp218:
	leaq	__unnamed_121(%rip), %rcx
	callq	_ZN4core9panicking11panic_const24panic_const_add_overflow17he356f8cd7e4debd3E
.Ltmp219:
	jmp	.LBB82_18
.LBB82_258:
	movl	232(%rbp), %eax
	movl	%eax, 668(%rbp)
	jmp	.LBB82_5
.LBB82_259:
.Ltmp220:
	leaq	__unnamed_122(%rip), %rcx
	callq	_ZN4core9panicking11panic_const24panic_const_add_overflow17he356f8cd7e4debd3E
.Ltmp221:
	jmp	.LBB82_18
.LBB82_260:
	movl	240(%rbp), %eax
	movl	%eax, 664(%rbp)
	jmp	.LBB82_5
.LBB82_261:
.Ltmp222:
	leaq	__unnamed_123(%rip), %rcx
	callq	_ZN4core9panicking11panic_const24panic_const_add_overflow17he356f8cd7e4debd3E
.Ltmp223:
	jmp	.LBB82_18
.LBB82_262:
	movl	248(%rbp), %eax
	movl	%eax, 660(%rbp)
	jmp	.LBB82_5
.LBB82_263:
.Ltmp224:
	leaq	__unnamed_124(%rip), %rcx
	callq	_ZN4core9panicking11panic_const24panic_const_add_overflow17he356f8cd7e4debd3E
.Ltmp225:
	jmp	.LBB82_18
.LBB82_264:
	movl	256(%rbp), %eax
	movl	%eax, 656(%rbp)
	jmp	.LBB82_5
.LBB82_265:
.Ltmp226:
	leaq	__unnamed_125(%rip), %rcx
	callq	_ZN4core9panicking11panic_const24panic_const_add_overflow17he356f8cd7e4debd3E
.Ltmp227:
	jmp	.LBB82_18
.LBB82_266:
	movl	264(%rbp), %eax
	movl	%eax, 652(%rbp)
	jmp	.LBB82_5
.LBB82_267:
.Ltmp228:
	leaq	__unnamed_126(%rip), %rcx
	callq	_ZN4core9panicking11panic_const24panic_const_add_overflow17he356f8cd7e4debd3E
.Ltmp229:
	jmp	.LBB82_18
.LBB82_268:
	movl	272(%rbp), %eax
	movl	%eax, 648(%rbp)
	jmp	.LBB82_5
.LBB82_269:
.Ltmp230:
	leaq	__unnamed_127(%rip), %rcx
	callq	_ZN4core9panicking11panic_const24panic_const_add_overflow17he356f8cd7e4debd3E
.Ltmp231:
	jmp	.LBB82_18
.LBB82_270:
	movl	280(%rbp), %eax
	movl	%eax, 644(%rbp)
	jmp	.LBB82_5
.LBB82_271:
.Ltmp232:
	leaq	__unnamed_128(%rip), %rcx
	callq	_ZN4core9panicking11panic_const24panic_const_add_overflow17he356f8cd7e4debd3E
.Ltmp233:
	jmp	.LBB82_18
.LBB82_272:
	movl	288(%rbp), %eax
	movl	%eax, 640(%rbp)
	jmp	.LBB82_5
.LBB82_273:
.Ltmp234:
	leaq	__unnamed_129(%rip), %rcx
	callq	_ZN4core9panicking11panic_const24panic_const_add_overflow17he356f8cd7e4debd3E
.Ltmp235:
	jmp	.LBB82_18
.LBB82_274:
	movl	296(%rbp), %eax
	movl	%eax, 636(%rbp)
	jmp	.LBB82_5
.LBB82_275:
.Ltmp236:
	leaq	__unnamed_130(%rip), %rcx
	callq	_ZN4core9panicking11panic_const24panic_const_add_overflow17he356f8cd7e4debd3E
.Ltmp237:
	jmp	.LBB82_18
.LBB82_276:
	movl	304(%rbp), %eax
	movl	%eax, 632(%rbp)
	jmp	.LBB82_5
.LBB82_277:
.Ltmp238:
	leaq	__unnamed_131(%rip), %rcx
	callq	_ZN4core9panicking11panic_const24panic_const_add_overflow17he356f8cd7e4debd3E
.Ltmp239:
	jmp	.LBB82_18
.LBB82_278:
	movl	312(%rbp), %eax
	movl	%eax, 628(%rbp)
	jmp	.LBB82_5
.LBB82_279:
.Ltmp240:
	leaq	__unnamed_132(%rip), %rcx
	callq	_ZN4core9panicking11panic_const24panic_const_add_overflow17he356f8cd7e4debd3E
.Ltmp241:
	jmp	.LBB82_18
.LBB82_280:
	movl	320(%rbp), %eax
	movl	%eax, 624(%rbp)
	jmp	.LBB82_5
.LBB82_281:
.Ltmp242:
	leaq	__unnamed_133(%rip), %rcx
	callq	_ZN4core9panicking11panic_const24panic_const_add_overflow17he356f8cd7e4debd3E
.Ltmp243:
	jmp	.LBB82_18
	.seh_handlerdata
	.long	($cppxdata$_ZN4main4main17hfb7f0a93cf431d44E)@IMGREL
	.section	.text,"xr",one_only,_ZN4main4main17hfb7f0a93cf431d44E
	.seh_endproc
	.def	"?dtor$1@?0?_ZN4main4main17hfb7f0a93cf431d44E@4HA";
	.scl	3;
	.type	32;
	.endef
	.p2align	4, 0x90
"?dtor$1@?0?_ZN4main4main17hfb7f0a93cf431d44E@4HA":
.seh_proc "?dtor$1@?0?_ZN4main4main17hfb7f0a93cf431d44E@4HA"
.LBB82_1:
	movq	%rdx, 16(%rsp)
	pushq	%rbp
	.seh_pushreg %rbp
	subq	$48, %rsp
	.seh_stackalloc 48
	leaq	128(%rdx), %rbp
	.seh_endprologue
	leaq	448(%rbp), %rcx
	callq	_ZN4core3ptr42drop_in_place$LT$alloc..string..String$GT$17h8632e628fd1a4f71E
	nop
	addq	$48, %rsp
	popq	%rbp
	retq
.Lfunc_end10:
	.seh_handlerdata
	.section	.text,"xr",one_only,_ZN4main4main17hfb7f0a93cf431d44E
	.seh_endproc
	.section	.xdata,"dr",associative,_ZN4main4main17hfb7f0a93cf431d44E
	.p2align	2, 0x0
$cppxdata$_ZN4main4main17hfb7f0a93cf431d44E:
	.long	429065506
	.long	1
	.long	($stateUnwindMap$_ZN4main4main17hfb7f0a93cf431d44E)@IMGREL
	.long	0
	.long	0
	.long	7
	.long	($ip2state$_ZN4main4main17hfb7f0a93cf431d44E)@IMGREL
	.long	1432
	.long	0
	.long	1
$stateUnwindMap$_ZN4main4main17hfb7f0a93cf431d44E:
	.long	-1
	.long	"?dtor$1@?0?_ZN4main4main17hfb7f0a93cf431d44E@4HA"@IMGREL
$ip2state$_ZN4main4main17hfb7f0a93cf431d44E:
	.long	.Lfunc_begin10@IMGREL
	.long	-1
	.long	.Ltmp28@IMGREL+1
	.long	0
	.long	.Ltmp33@IMGREL+1
	.long	-1
	.long	.Ltmp34@IMGREL+1
	.long	0
	.long	.Ltmp251@IMGREL+1
	.long	-1
	.long	.Ltmp258@IMGREL+1
	.long	0
	.long	.Ltmp243@IMGREL+1
	.long	-1
	.section	.text,"xr",one_only,_ZN4main4main17hfb7f0a93cf431d44E

	.def	main;
	.scl	2;
	.type	32;
	.endef
	.section	.text,"xr",one_only,main
	.globl	main
	.p2align	4, 0x90
main:
.seh_proc main
	subq	$40, %rsp
	.seh_stackalloc 40
	.seh_endprologue
	movq	%rdx, %r8
	movslq	%ecx, %rdx
	leaq	_ZN4main4main17hfb7f0a93cf431d44E(%rip), %rcx
	xorl	%r9d, %r9d
	callq	_ZN3std2rt10lang_start17h5de13e7aa6e7231cE
	nop
	addq	$40, %rsp
	retq
	.seh_endproc

	.section	.rdata,"dr",one_only,__unnamed_134
__unnamed_134:
	.ascii	"/rustc/eeb90cda1969383f56a2637cbd3037bdf598841c\\library\\core\\src\\iter\\adapters\\enumerate.rs"

	.section	.rdata,"dr",one_only,__unnamed_1
	.p2align	3, 0x0
__unnamed_1:
	.quad	__unnamed_134
	.asciz	"[\000\000\000\000\000\000\0002\000\000\000\t\000\000"

	.section	.rdata,"dr",one_only,__unnamed_2
__unnamed_2:
	.ascii	"internal error: entered unreachable code"

	.section	.rdata,"dr",one_only,__unnamed_135
__unnamed_135:
	.ascii	"/rustc/eeb90cda1969383f56a2637cbd3037bdf598841c\\library\\std\\src\\io\\error\\repr_bitpacked.rs"

	.section	.rdata,"dr",one_only,__unnamed_3
	.p2align	3, 0x0
__unnamed_3:
	.quad	__unnamed_135
	.asciz	"Z\000\000\000\000\000\000\000\037\001\000\000\r\000\000"

	.section	.rdata,"dr",one_only,__unnamed_4
	.p2align	3, 0x0
__unnamed_4:
	.asciz	"\000\000\000\000\000\000\000\000\b\000\000\000\000\000\000\000\b\000\000\000\000\000\000"
	.quad	_ZN4core3ops8function6FnOnce40call_once$u7b$$u7b$vtable.shim$u7d$$u7d$17he3e313fe47af4a6fE
	.quad	_ZN3std2rt10lang_start28_$u7b$$u7b$closure$u7d$$u7d$17h35702adb5f968ee4E
	.quad	_ZN3std2rt10lang_start28_$u7b$$u7b$closure$u7d$$u7d$17h35702adb5f968ee4E

	.section	.rdata,"dr",one_only,__unnamed_5
	.p2align	3, 0x0
__unnamed_5:
	.zero	8
	.zero	8

	.section	.rdata,"dr",one_only,__unnamed_6
__unnamed_6:
	.ascii	"unsafe precondition(s) violated: usize::unchecked_add cannot overflow"

	.section	.rdata,"dr",one_only,__unnamed_7
__unnamed_7:
	.ascii	"unsafe precondition(s) violated: usize::unchecked_mul cannot overflow"

	.section	.rdata,"dr",one_only,__unnamed_8
__unnamed_8:
	.ascii	"unsafe precondition(s) violated: usize::unchecked_sub cannot overflow"

	.section	.rdata,"dr",one_only,__unnamed_9
__unnamed_9:
	.ascii	"unsafe precondition(s) violated: NonNull::new_unchecked requires that the pointer is non-null"

	.section	.rdata,"dr",one_only,__unnamed_10
	.p2align	2, 0x0
__unnamed_10:
	.zero	4
	.zero	4

	.section	.rdata,"dr",one_only,__unnamed_11
__unnamed_11:
	.ascii	"unsafe precondition(s) violated: str::get_unchecked requires that the range is within the string slice"

	.section	.rdata,"dr",one_only,__unnamed_136
__unnamed_136:
	.ascii	"/rustc/eeb90cda1969383f56a2637cbd3037bdf598841c\\library\\core\\src\\str\\pattern.rs"

	.section	.rdata,"dr",one_only,__unnamed_12
	.p2align	3, 0x0
__unnamed_12:
	.quad	__unnamed_136
	.asciz	"O\000\000\000\000\000\000\000\303\005\000\000\024\000\000"

	.section	.rdata,"dr",one_only,__unnamed_13
	.p2align	3, 0x0
__unnamed_13:
	.quad	__unnamed_136
	.asciz	"O\000\000\000\000\000\000\000\303\005\000\000!\000\000"

	.section	.rdata,"dr",one_only,__unnamed_14
	.p2align	3, 0x0
__unnamed_14:
	.quad	__unnamed_136
	.asciz	"O\000\000\000\000\000\000\000\267\005\000\000\024\000\000"

	.section	.rdata,"dr",one_only,__unnamed_15
	.p2align	3, 0x0
__unnamed_15:
	.quad	__unnamed_136
	.asciz	"O\000\000\000\000\000\000\000\267\005\000\000!\000\000"

	.section	.rdata,"dr",one_only,__unnamed_16
__unnamed_16:
	.ascii	"unsafe precondition(s) violated: invalid value for `char`"

	.section	.rdata,"dr",one_only,__unnamed_17
__unnamed_17:
	.ascii	"unsafe precondition(s) violated: hint::unreachable_unchecked must never be reached"

	.section	.rdata,"dr",one_only,__unnamed_137
__unnamed_137:
	.ascii	"/rustc/eeb90cda1969383f56a2637cbd3037bdf598841c\\library\\core\\src\\ub_checks.rs"

	.section	.rdata,"dr",one_only,__unnamed_21
	.p2align	3, 0x0
__unnamed_21:
	.quad	__unnamed_137
	.asciz	"M\000\000\000\000\000\000\000|\000\000\0006\000\000"

	.section	.rdata,"dr",one_only,__unnamed_20
__unnamed_20:
	.ascii	"unsafe precondition(s) violated: slice::from_raw_parts requires the pointer to be aligned and non-null, and the total size of the slice not to exceed `isize::MAX`"

	.section	.rdata,"dr",one_only,__unnamed_138
__unnamed_138:
	.ascii	"is_aligned_to: align is not a power-of-two"

	.section	.rdata,"dr",one_only,__unnamed_18
	.p2align	3, 0x0
__unnamed_18:
	.quad	__unnamed_138
	.asciz	"*\000\000\000\000\000\000"

	.section	.rdata,"dr",one_only,__unnamed_139
__unnamed_139:
	.ascii	"/rustc/eeb90cda1969383f56a2637cbd3037bdf598841c\\library\\core\\src\\ptr\\const_ptr.rs"

	.section	.rdata,"dr",one_only,__unnamed_19
	.p2align	3, 0x0
__unnamed_19:
	.quad	__unnamed_139
	.asciz	"Q\000\000\000\000\000\000\000\031\006\000\000\r\000\000"

	.section	.rdata,"dr",one_only,__unnamed_22
	.p2align	3, 0x0
__unnamed_22:
	.quad	_ZN4core3ptr42drop_in_place$LT$std..io..error..Error$GT$17hcfa0d9b32f18f535E
	.asciz	"\b\000\000\000\000\000\000\000\b\000\000\000\000\000\000"
	.quad	_ZN58_$LT$std..io..error..Error$u20$as$u20$core..fmt..Debug$GT$3fmt17haf57d184421c838fE

	.section	.rdata,"dr",one_only,__unnamed_23
	.p2align	3, 0x0
__unnamed_23:
	.quad	__unnamed_136
	.asciz	"O\000\000\000\000\000\000\000G\004\000\000$\000\000"

	.section	.rdata,"dr",one_only,__unnamed_24
__unnamed_24:
	.ascii	"test1.txt"

	.section	.rdata,"dr",one_only,__unnamed_26
__unnamed_26:
	.ascii	"Could not find file"

	.section	.rdata,"dr",one_only,__unnamed_140
__unnamed_140:
	.ascii	"main.rs"

	.section	.rdata,"dr",one_only,__unnamed_25
	.p2align	3, 0x0
__unnamed_25:
	.quad	__unnamed_140
	.asciz	"\007\000\000\000\000\000\000\000\007\000\000\0002\000\000"

	.section	.rdata,"dr",one_only,__unnamed_28
	.p2align	3, 0x0
__unnamed_28:
	.quad	__unnamed_140
	.asciz	"\007\000\000\000\000\000\000\000G\000\000\000\026\000\000"

	.section	.rdata,"dr",one_only,__unnamed_30
	.p2align	3, 0x0
__unnamed_30:
	.quad	__unnamed_140
	.asciz	"\007\000\000\000\000\000\000\000H\000\000\000\034\000\000"

	.section	.rdata,"dr",one_only,__unnamed_141
__unnamed_141:
	.ascii	" : "

	.section	.rdata,"dr",one_only,__unnamed_142
__unnamed_142:
	.byte	10

	.section	.rdata,"dr",one_only,__unnamed_29
	.p2align	3, 0x0
__unnamed_29:
	.quad	1
	.zero	8
	.quad	1
	.zero	8
	.quad	__unnamed_141
	.asciz	"\003\000\000\000\000\000\000"
	.quad	__unnamed_142
	.asciz	"\001\000\000\000\000\000\000"

	.section	.rdata,"dr",one_only,__unnamed_27
__unnamed_27:
	.byte	97

	.section	.rdata,"dr",one_only,__unnamed_31
__unnamed_31:
	.byte	98

	.section	.rdata,"dr",one_only,__unnamed_32
__unnamed_32:
	.byte	99

	.section	.rdata,"dr",one_only,__unnamed_33
__unnamed_33:
	.byte	100

	.section	.rdata,"dr",one_only,__unnamed_34
__unnamed_34:
	.byte	101

	.section	.rdata,"dr",one_only,__unnamed_35
__unnamed_35:
	.byte	102

	.section	.rdata,"dr",one_only,__unnamed_36
__unnamed_36:
	.byte	103

	.section	.rdata,"dr",one_only,__unnamed_37
__unnamed_37:
	.byte	104

	.section	.rdata,"dr",one_only,__unnamed_38
__unnamed_38:
	.byte	105

	.section	.rdata,"dr",one_only,__unnamed_39
__unnamed_39:
	.byte	106

	.section	.rdata,"dr",one_only,__unnamed_40
__unnamed_40:
	.byte	107

	.section	.rdata,"dr",one_only,__unnamed_41
__unnamed_41:
	.byte	108

	.section	.rdata,"dr",one_only,__unnamed_42
__unnamed_42:
	.byte	109

	.section	.rdata,"dr",one_only,__unnamed_43
__unnamed_43:
	.byte	110

	.section	.rdata,"dr",one_only,__unnamed_44
__unnamed_44:
	.byte	111

	.section	.rdata,"dr",one_only,__unnamed_45
__unnamed_45:
	.byte	112

	.section	.rdata,"dr",one_only,__unnamed_46
__unnamed_46:
	.byte	113

	.section	.rdata,"dr",one_only,__unnamed_47
__unnamed_47:
	.byte	114

	.section	.rdata,"dr",one_only,__unnamed_48
__unnamed_48:
	.byte	115

	.section	.rdata,"dr",one_only,__unnamed_49
__unnamed_49:
	.byte	116

	.section	.rdata,"dr",one_only,__unnamed_50
__unnamed_50:
	.byte	117

	.section	.rdata,"dr",one_only,__unnamed_51
__unnamed_51:
	.byte	118

	.section	.rdata,"dr",one_only,__unnamed_52
__unnamed_52:
	.byte	119

	.section	.rdata,"dr",one_only,__unnamed_53
__unnamed_53:
	.byte	120

	.section	.rdata,"dr",one_only,__unnamed_54
__unnamed_54:
	.byte	121

	.section	.rdata,"dr",one_only,__unnamed_55
__unnamed_55:
	.byte	122

	.section	.rdata,"dr",one_only,__unnamed_56
__unnamed_56:
	.byte	65

	.section	.rdata,"dr",one_only,__unnamed_57
__unnamed_57:
	.byte	66

	.section	.rdata,"dr",one_only,__unnamed_58
__unnamed_58:
	.byte	67

	.section	.rdata,"dr",one_only,__unnamed_59
__unnamed_59:
	.byte	68

	.section	.rdata,"dr",one_only,__unnamed_60
__unnamed_60:
	.byte	69

	.section	.rdata,"dr",one_only,__unnamed_61
__unnamed_61:
	.byte	70

	.section	.rdata,"dr",one_only,__unnamed_62
__unnamed_62:
	.byte	71

	.section	.rdata,"dr",one_only,__unnamed_63
__unnamed_63:
	.byte	72

	.section	.rdata,"dr",one_only,__unnamed_64
__unnamed_64:
	.byte	73

	.section	.rdata,"dr",one_only,__unnamed_65
__unnamed_65:
	.byte	74

	.section	.rdata,"dr",one_only,__unnamed_66
__unnamed_66:
	.byte	75

	.section	.rdata,"dr",one_only,__unnamed_67
__unnamed_67:
	.byte	76

	.section	.rdata,"dr",one_only,__unnamed_68
__unnamed_68:
	.byte	77

	.section	.rdata,"dr",one_only,__unnamed_69
__unnamed_69:
	.byte	78

	.section	.rdata,"dr",one_only,__unnamed_70
__unnamed_70:
	.byte	79

	.section	.rdata,"dr",one_only,__unnamed_71
__unnamed_71:
	.byte	80

	.section	.rdata,"dr",one_only,__unnamed_72
__unnamed_72:
	.byte	81

	.section	.rdata,"dr",one_only,__unnamed_73
__unnamed_73:
	.byte	82

	.section	.rdata,"dr",one_only,__unnamed_74
__unnamed_74:
	.byte	83

	.section	.rdata,"dr",one_only,__unnamed_75
__unnamed_75:
	.byte	84

	.section	.rdata,"dr",one_only,__unnamed_76
__unnamed_76:
	.byte	85

	.section	.rdata,"dr",one_only,__unnamed_77
__unnamed_77:
	.byte	86

	.section	.rdata,"dr",one_only,__unnamed_78
__unnamed_78:
	.byte	87

	.section	.rdata,"dr",one_only,__unnamed_79
__unnamed_79:
	.byte	88

	.section	.rdata,"dr",one_only,__unnamed_80
__unnamed_80:
	.byte	89

	.section	.rdata,"dr",one_only,__unnamed_81
__unnamed_81:
	.byte	90

	.section	.rdata,"dr",one_only,__unnamed_82
	.p2align	3, 0x0
__unnamed_82:
	.quad	__unnamed_140
	.asciz	"\007\000\000\000\000\000\000\000B\000\000\000'\000\000"

	.section	.rdata,"dr",one_only,__unnamed_83
	.p2align	3, 0x0
__unnamed_83:
	.quad	__unnamed_140
	.asciz	"\007\000\000\000\000\000\000\000A\000\000\000'\000\000"

	.section	.rdata,"dr",one_only,__unnamed_84
	.p2align	3, 0x0
__unnamed_84:
	.quad	__unnamed_140
	.asciz	"\007\000\000\000\000\000\000\000@\000\000\000'\000\000"

	.section	.rdata,"dr",one_only,__unnamed_85
	.p2align	3, 0x0
__unnamed_85:
	.quad	__unnamed_140
	.asciz	"\007\000\000\000\000\000\000\000?\000\000\000'\000\000"

	.section	.rdata,"dr",one_only,__unnamed_86
	.p2align	3, 0x0
__unnamed_86:
	.quad	__unnamed_140
	.asciz	"\007\000\000\000\000\000\000\000>\000\000\000'\000\000"

	.section	.rdata,"dr",one_only,__unnamed_87
	.p2align	3, 0x0
__unnamed_87:
	.quad	__unnamed_140
	.asciz	"\007\000\000\000\000\000\000\000=\000\000\000'\000\000"

	.section	.rdata,"dr",one_only,__unnamed_88
	.p2align	3, 0x0
__unnamed_88:
	.quad	__unnamed_140
	.asciz	"\007\000\000\000\000\000\000\000<\000\000\000'\000\000"

	.section	.rdata,"dr",one_only,__unnamed_89
	.p2align	3, 0x0
__unnamed_89:
	.quad	__unnamed_140
	.asciz	"\007\000\000\000\000\000\000\000;\000\000\000'\000\000"

	.section	.rdata,"dr",one_only,__unnamed_90
	.p2align	3, 0x0
__unnamed_90:
	.quad	__unnamed_140
	.asciz	"\007\000\000\000\000\000\000\000:\000\000\000'\000\000"

	.section	.rdata,"dr",one_only,__unnamed_91
	.p2align	3, 0x0
__unnamed_91:
	.quad	__unnamed_140
	.asciz	"\007\000\000\000\000\000\000\0009\000\000\000'\000\000"

	.section	.rdata,"dr",one_only,__unnamed_92
	.p2align	3, 0x0
__unnamed_92:
	.quad	__unnamed_140
	.asciz	"\007\000\000\000\000\000\000\0008\000\000\000'\000\000"

	.section	.rdata,"dr",one_only,__unnamed_93
	.p2align	3, 0x0
__unnamed_93:
	.quad	__unnamed_140
	.asciz	"\007\000\000\000\000\000\000\0007\000\000\000'\000\000"

	.section	.rdata,"dr",one_only,__unnamed_94
	.p2align	3, 0x0
__unnamed_94:
	.quad	__unnamed_140
	.asciz	"\007\000\000\000\000\000\000\0006\000\000\000'\000\000"

	.section	.rdata,"dr",one_only,__unnamed_95
	.p2align	3, 0x0
__unnamed_95:
	.quad	__unnamed_140
	.asciz	"\007\000\000\000\000\000\000\0005\000\000\000'\000\000"

	.section	.rdata,"dr",one_only,__unnamed_96
	.p2align	3, 0x0
__unnamed_96:
	.quad	__unnamed_140
	.asciz	"\007\000\000\000\000\000\000\0004\000\000\000'\000\000"

	.section	.rdata,"dr",one_only,__unnamed_97
	.p2align	3, 0x0
__unnamed_97:
	.quad	__unnamed_140
	.asciz	"\007\000\000\000\000\000\000\0003\000\000\000'\000\000"

	.section	.rdata,"dr",one_only,__unnamed_98
	.p2align	3, 0x0
__unnamed_98:
	.quad	__unnamed_140
	.asciz	"\007\000\000\000\000\000\000\0002\000\000\000&\000\000"

	.section	.rdata,"dr",one_only,__unnamed_99
	.p2align	3, 0x0
__unnamed_99:
	.quad	__unnamed_140
	.asciz	"\007\000\000\000\000\000\000\0001\000\000\000&\000\000"

	.section	.rdata,"dr",one_only,__unnamed_100
	.p2align	3, 0x0
__unnamed_100:
	.quad	__unnamed_140
	.asciz	"\007\000\000\000\000\000\000\0000\000\000\000&\000\000"

	.section	.rdata,"dr",one_only,__unnamed_101
	.p2align	3, 0x0
__unnamed_101:
	.quad	__unnamed_140
	.asciz	"\007\000\000\000\000\000\000\000/\000\000\000&\000\000"

	.section	.rdata,"dr",one_only,__unnamed_102
	.p2align	3, 0x0
__unnamed_102:
	.quad	__unnamed_140
	.asciz	"\007\000\000\000\000\000\000\000.\000\000\000&\000\000"

	.section	.rdata,"dr",one_only,__unnamed_103
	.p2align	3, 0x0
__unnamed_103:
	.quad	__unnamed_140
	.asciz	"\007\000\000\000\000\000\000\000-\000\000\000&\000\000"

	.section	.rdata,"dr",one_only,__unnamed_104
	.p2align	3, 0x0
__unnamed_104:
	.quad	__unnamed_140
	.asciz	"\007\000\000\000\000\000\000\000,\000\000\000&\000\000"

	.section	.rdata,"dr",one_only,__unnamed_105
	.p2align	3, 0x0
__unnamed_105:
	.quad	__unnamed_140
	.asciz	"\007\000\000\000\000\000\000\000+\000\000\000&\000\000"

	.section	.rdata,"dr",one_only,__unnamed_106
	.p2align	3, 0x0
__unnamed_106:
	.quad	__unnamed_140
	.asciz	"\007\000\000\000\000\000\000\000*\000\000\000&\000\000"

	.section	.rdata,"dr",one_only,__unnamed_107
	.p2align	3, 0x0
__unnamed_107:
	.quad	__unnamed_140
	.asciz	"\007\000\000\000\000\000\000\000)\000\000\000&\000\000"

	.section	.rdata,"dr",one_only,__unnamed_108
	.p2align	3, 0x0
__unnamed_108:
	.quad	__unnamed_140
	.asciz	"\007\000\000\000\000\000\000\000(\000\000\000'\000\000"

	.section	.rdata,"dr",one_only,__unnamed_109
	.p2align	3, 0x0
__unnamed_109:
	.quad	__unnamed_140
	.asciz	"\007\000\000\000\000\000\000\000'\000\000\000'\000\000"

	.section	.rdata,"dr",one_only,__unnamed_110
	.p2align	3, 0x0
__unnamed_110:
	.quad	__unnamed_140
	.asciz	"\007\000\000\000\000\000\000\000&\000\000\000'\000\000"

	.section	.rdata,"dr",one_only,__unnamed_111
	.p2align	3, 0x0
__unnamed_111:
	.quad	__unnamed_140
	.asciz	"\007\000\000\000\000\000\000\000%\000\000\000'\000\000"

	.section	.rdata,"dr",one_only,__unnamed_112
	.p2align	3, 0x0
__unnamed_112:
	.quad	__unnamed_140
	.asciz	"\007\000\000\000\000\000\000\000$\000\000\000'\000\000"

	.section	.rdata,"dr",one_only,__unnamed_113
	.p2align	3, 0x0
__unnamed_113:
	.quad	__unnamed_140
	.asciz	"\007\000\000\000\000\000\000\000#\000\000\000'\000\000"

	.section	.rdata,"dr",one_only,__unnamed_114
	.p2align	3, 0x0
__unnamed_114:
	.quad	__unnamed_140
	.asciz	"\007\000\000\000\000\000\000\000\"\000\000\000'\000\000"

	.section	.rdata,"dr",one_only,__unnamed_115
	.p2align	3, 0x0
__unnamed_115:
	.quad	__unnamed_140
	.asciz	"\007\000\000\000\000\000\000\000!\000\000\000'\000\000"

	.section	.rdata,"dr",one_only,__unnamed_116
	.p2align	3, 0x0
__unnamed_116:
	.quad	__unnamed_140
	.asciz	"\007\000\000\000\000\000\000\000 \000\000\000'\000\000"

	.section	.rdata,"dr",one_only,__unnamed_117
	.p2align	3, 0x0
__unnamed_117:
	.quad	__unnamed_140
	.asciz	"\007\000\000\000\000\000\000\000\037\000\000\000'\000\000"

	.section	.rdata,"dr",one_only,__unnamed_118
	.p2align	3, 0x0
__unnamed_118:
	.quad	__unnamed_140
	.asciz	"\007\000\000\000\000\000\000\000\036\000\000\000'\000\000"

	.section	.rdata,"dr",one_only,__unnamed_119
	.p2align	3, 0x0
__unnamed_119:
	.quad	__unnamed_140
	.asciz	"\007\000\000\000\000\000\000\000\035\000\000\000'\000\000"

	.section	.rdata,"dr",one_only,__unnamed_120
	.p2align	3, 0x0
__unnamed_120:
	.quad	__unnamed_140
	.asciz	"\007\000\000\000\000\000\000\000\034\000\000\000'\000\000"

	.section	.rdata,"dr",one_only,__unnamed_121
	.p2align	3, 0x0
__unnamed_121:
	.quad	__unnamed_140
	.asciz	"\007\000\000\000\000\000\000\000\033\000\000\000'\000\000"

	.section	.rdata,"dr",one_only,__unnamed_122
	.p2align	3, 0x0
__unnamed_122:
	.quad	__unnamed_140
	.asciz	"\007\000\000\000\000\000\000\000\032\000\000\000'\000\000"

	.section	.rdata,"dr",one_only,__unnamed_123
	.p2align	3, 0x0
__unnamed_123:
	.quad	__unnamed_140
	.asciz	"\007\000\000\000\000\000\000\000\031\000\000\000'\000\000"

	.section	.rdata,"dr",one_only,__unnamed_124
	.p2align	3, 0x0
__unnamed_124:
	.quad	__unnamed_140
	.asciz	"\007\000\000\000\000\000\000\000\030\000\000\000&\000\000"

	.section	.rdata,"dr",one_only,__unnamed_125
	.p2align	3, 0x0
__unnamed_125:
	.quad	__unnamed_140
	.asciz	"\007\000\000\000\000\000\000\000\027\000\000\000&\000\000"

	.section	.rdata,"dr",one_only,__unnamed_126
	.p2align	3, 0x0
__unnamed_126:
	.quad	__unnamed_140
	.asciz	"\007\000\000\000\000\000\000\000\026\000\000\000&\000\000"

	.section	.rdata,"dr",one_only,__unnamed_127
	.p2align	3, 0x0
__unnamed_127:
	.quad	__unnamed_140
	.asciz	"\007\000\000\000\000\000\000\000\025\000\000\000&\000\000"

	.section	.rdata,"dr",one_only,__unnamed_128
	.p2align	3, 0x0
__unnamed_128:
	.quad	__unnamed_140
	.asciz	"\007\000\000\000\000\000\000\000\024\000\000\000&\000\000"

	.section	.rdata,"dr",one_only,__unnamed_129
	.p2align	3, 0x0
__unnamed_129:
	.quad	__unnamed_140
	.asciz	"\007\000\000\000\000\000\000\000\023\000\000\000&\000\000"

	.section	.rdata,"dr",one_only,__unnamed_130
	.p2align	3, 0x0
__unnamed_130:
	.quad	__unnamed_140
	.asciz	"\007\000\000\000\000\000\000\000\022\000\000\000&\000\000"

	.section	.rdata,"dr",one_only,__unnamed_131
	.p2align	3, 0x0
__unnamed_131:
	.quad	__unnamed_140
	.asciz	"\007\000\000\000\000\000\000\000\021\000\000\000&\000\000"

	.section	.rdata,"dr",one_only,__unnamed_132
	.p2align	3, 0x0
__unnamed_132:
	.quad	__unnamed_140
	.asciz	"\007\000\000\000\000\000\000\000\020\000\000\000&\000\000"

	.section	.rdata,"dr",one_only,__unnamed_133
	.p2align	3, 0x0
__unnamed_133:
	.quad	__unnamed_140
	.asciz	"\007\000\000\000\000\000\000\000\017\000\000\000&\000\000"

